
bomb:     file format elf32-i386


Disassembly of section .init:

080486f4 <_init>:
 80486f4:	53                   	push   %ebx
 80486f5:	83 ec 08             	sub    $0x8,%esp
 80486f8:	e8 13 02 00 00       	call   8048910 <__x86.get_pc_thunk.bx>
 80486fd:	81 c3 03 39 00 00    	add    $0x3903,%ebx
 8048703:	8b 83 fc ff ff ff    	mov    -0x4(%ebx),%eax
 8048709:	85 c0                	test   %eax,%eax
 804870b:	74 05                	je     8048712 <_init+0x1e>
 804870d:	e8 be 01 00 00       	call   80488d0 <__gmon_start__@plt>
 8048712:	83 c4 08             	add    $0x8,%esp
 8048715:	5b                   	pop    %ebx
 8048716:	c3                   	ret    

Disassembly of section .plt:

08048720 <.plt>:
 8048720:	ff 35 04 c0 04 08    	pushl  0x804c004
 8048726:	ff 25 08 c0 04 08    	jmp    *0x804c008
 804872c:	00 00                	add    %al,(%eax)
	...

08048730 <read@plt>:
 8048730:	ff 25 0c c0 04 08    	jmp    *0x804c00c
 8048736:	68 00 00 00 00       	push   $0x0
 804873b:	e9 e0 ff ff ff       	jmp    8048720 <.plt>

08048740 <fflush@plt>:
 8048740:	ff 25 10 c0 04 08    	jmp    *0x804c010
 8048746:	68 08 00 00 00       	push   $0x8
 804874b:	e9 d0 ff ff ff       	jmp    8048720 <.plt>

08048750 <fgets@plt>:
 8048750:	ff 25 14 c0 04 08    	jmp    *0x804c014
 8048756:	68 10 00 00 00       	push   $0x10
 804875b:	e9 c0 ff ff ff       	jmp    8048720 <.plt>

08048760 <signal@plt>:
 8048760:	ff 25 18 c0 04 08    	jmp    *0x804c018
 8048766:	68 18 00 00 00       	push   $0x18
 804876b:	e9 b0 ff ff ff       	jmp    8048720 <.plt>

08048770 <sleep@plt>:
 8048770:	ff 25 1c c0 04 08    	jmp    *0x804c01c
 8048776:	68 20 00 00 00       	push   $0x20
 804877b:	e9 a0 ff ff ff       	jmp    8048720 <.plt>

08048780 <alarm@plt>:
 8048780:	ff 25 20 c0 04 08    	jmp    *0x804c020
 8048786:	68 28 00 00 00       	push   $0x28
 804878b:	e9 90 ff ff ff       	jmp    8048720 <.plt>

08048790 <__stack_chk_fail@plt>:
 8048790:	ff 25 24 c0 04 08    	jmp    *0x804c024
 8048796:	68 30 00 00 00       	push   $0x30
 804879b:	e9 80 ff ff ff       	jmp    8048720 <.plt>

080487a0 <strcpy@plt>:
 80487a0:	ff 25 28 c0 04 08    	jmp    *0x804c028
 80487a6:	68 38 00 00 00       	push   $0x38
 80487ab:	e9 70 ff ff ff       	jmp    8048720 <.plt>

080487b0 <getenv@plt>:
 80487b0:	ff 25 2c c0 04 08    	jmp    *0x804c02c
 80487b6:	68 40 00 00 00       	push   $0x40
 80487bb:	e9 60 ff ff ff       	jmp    8048720 <.plt>

080487c0 <puts@plt>:
 80487c0:	ff 25 30 c0 04 08    	jmp    *0x804c030
 80487c6:	68 48 00 00 00       	push   $0x48
 80487cb:	e9 50 ff ff ff       	jmp    8048720 <.plt>

080487d0 <__memmove_chk@plt>:
 80487d0:	ff 25 34 c0 04 08    	jmp    *0x804c034
 80487d6:	68 50 00 00 00       	push   $0x50
 80487db:	e9 40 ff ff ff       	jmp    8048720 <.plt>

080487e0 <exit@plt>:
 80487e0:	ff 25 38 c0 04 08    	jmp    *0x804c038
 80487e6:	68 58 00 00 00       	push   $0x58
 80487eb:	e9 30 ff ff ff       	jmp    8048720 <.plt>

080487f0 <__libc_start_main@plt>:
 80487f0:	ff 25 3c c0 04 08    	jmp    *0x804c03c
 80487f6:	68 60 00 00 00       	push   $0x60
 80487fb:	e9 20 ff ff ff       	jmp    8048720 <.plt>

08048800 <write@plt>:
 8048800:	ff 25 40 c0 04 08    	jmp    *0x804c040
 8048806:	68 68 00 00 00       	push   $0x68
 804880b:	e9 10 ff ff ff       	jmp    8048720 <.plt>

08048810 <__isoc99_sscanf@plt>:
 8048810:	ff 25 44 c0 04 08    	jmp    *0x804c044
 8048816:	68 70 00 00 00       	push   $0x70
 804881b:	e9 00 ff ff ff       	jmp    8048720 <.plt>

08048820 <fopen@plt>:
 8048820:	ff 25 48 c0 04 08    	jmp    *0x804c048
 8048826:	68 78 00 00 00       	push   $0x78
 804882b:	e9 f0 fe ff ff       	jmp    8048720 <.plt>

08048830 <__errno_location@plt>:
 8048830:	ff 25 4c c0 04 08    	jmp    *0x804c04c
 8048836:	68 80 00 00 00       	push   $0x80
 804883b:	e9 e0 fe ff ff       	jmp    8048720 <.plt>

08048840 <__printf_chk@plt>:
 8048840:	ff 25 50 c0 04 08    	jmp    *0x804c050
 8048846:	68 88 00 00 00       	push   $0x88
 804884b:	e9 d0 fe ff ff       	jmp    8048720 <.plt>

08048850 <socket@plt>:
 8048850:	ff 25 54 c0 04 08    	jmp    *0x804c054
 8048856:	68 90 00 00 00       	push   $0x90
 804885b:	e9 c0 fe ff ff       	jmp    8048720 <.plt>

08048860 <__fprintf_chk@plt>:
 8048860:	ff 25 58 c0 04 08    	jmp    *0x804c058
 8048866:	68 98 00 00 00       	push   $0x98
 804886b:	e9 b0 fe ff ff       	jmp    8048720 <.plt>

08048870 <gethostbyname@plt>:
 8048870:	ff 25 5c c0 04 08    	jmp    *0x804c05c
 8048876:	68 a0 00 00 00       	push   $0xa0
 804887b:	e9 a0 fe ff ff       	jmp    8048720 <.plt>

08048880 <strtol@plt>:
 8048880:	ff 25 60 c0 04 08    	jmp    *0x804c060
 8048886:	68 a8 00 00 00       	push   $0xa8
 804888b:	e9 90 fe ff ff       	jmp    8048720 <.plt>

08048890 <connect@plt>:
 8048890:	ff 25 64 c0 04 08    	jmp    *0x804c064
 8048896:	68 b0 00 00 00       	push   $0xb0
 804889b:	e9 80 fe ff ff       	jmp    8048720 <.plt>

080488a0 <close@plt>:
 80488a0:	ff 25 68 c0 04 08    	jmp    *0x804c068
 80488a6:	68 b8 00 00 00       	push   $0xb8
 80488ab:	e9 70 fe ff ff       	jmp    8048720 <.plt>

080488b0 <__ctype_b_loc@plt>:
 80488b0:	ff 25 6c c0 04 08    	jmp    *0x804c06c
 80488b6:	68 c0 00 00 00       	push   $0xc0
 80488bb:	e9 60 fe ff ff       	jmp    8048720 <.plt>

080488c0 <__sprintf_chk@plt>:
 80488c0:	ff 25 70 c0 04 08    	jmp    *0x804c070
 80488c6:	68 c8 00 00 00       	push   $0xc8
 80488cb:	e9 50 fe ff ff       	jmp    8048720 <.plt>

Disassembly of section .plt.got:

080488d0 <__gmon_start__@plt>:
 80488d0:	ff 25 fc bf 04 08    	jmp    *0x804bffc
 80488d6:	66 90                	xchg   %ax,%ax

Disassembly of section .text:

080488e0 <_start>:
 80488e0:	31 ed                	xor    %ebp,%ebp
 80488e2:	5e                   	pop    %esi
 80488e3:	89 e1                	mov    %esp,%ecx
 80488e5:	83 e4 f0             	and    $0xfffffff0,%esp
 80488e8:	50                   	push   %eax
 80488e9:	54                   	push   %esp
 80488ea:	52                   	push   %edx
 80488eb:	68 60 9e 04 08       	push   $0x8049e60
 80488f0:	68 00 9e 04 08       	push   $0x8049e00
 80488f5:	51                   	push   %ecx
 80488f6:	56                   	push   %esi
 80488f7:	68 db 89 04 08       	push   $0x80489db
 80488fc:	e8 ef fe ff ff       	call   80487f0 <__libc_start_main@plt>
 8048901:	f4                   	hlt    
 8048902:	66 90                	xchg   %ax,%ax
 8048904:	66 90                	xchg   %ax,%ax
 8048906:	66 90                	xchg   %ax,%ax
 8048908:	66 90                	xchg   %ax,%ax
 804890a:	66 90                	xchg   %ax,%ax
 804890c:	66 90                	xchg   %ax,%ax
 804890e:	66 90                	xchg   %ax,%ax

08048910 <__x86.get_pc_thunk.bx>:
 8048910:	8b 1c 24             	mov    (%esp),%ebx
 8048913:	c3                   	ret    
 8048914:	66 90                	xchg   %ax,%ax
 8048916:	66 90                	xchg   %ax,%ax
 8048918:	66 90                	xchg   %ax,%ax
 804891a:	66 90                	xchg   %ax,%ax
 804891c:	66 90                	xchg   %ax,%ax
 804891e:	66 90                	xchg   %ax,%ax

08048920 <deregister_tm_clones>:
 8048920:	b8 a3 c3 04 08       	mov    $0x804c3a3,%eax
 8048925:	2d a0 c3 04 08       	sub    $0x804c3a0,%eax
 804892a:	83 f8 06             	cmp    $0x6,%eax
 804892d:	76 1a                	jbe    8048949 <deregister_tm_clones+0x29>
 804892f:	b8 00 00 00 00       	mov    $0x0,%eax
 8048934:	85 c0                	test   %eax,%eax
 8048936:	74 11                	je     8048949 <deregister_tm_clones+0x29>
 8048938:	55                   	push   %ebp
 8048939:	89 e5                	mov    %esp,%ebp
 804893b:	83 ec 14             	sub    $0x14,%esp
 804893e:	68 a0 c3 04 08       	push   $0x804c3a0
 8048943:	ff d0                	call   *%eax
 8048945:	83 c4 10             	add    $0x10,%esp
 8048948:	c9                   	leave  
 8048949:	f3 c3                	repz ret 
 804894b:	90                   	nop
 804894c:	8d 74 26 00          	lea    0x0(%esi,%eiz,1),%esi

08048950 <register_tm_clones>:
 8048950:	b8 a0 c3 04 08       	mov    $0x804c3a0,%eax
 8048955:	2d a0 c3 04 08       	sub    $0x804c3a0,%eax
 804895a:	c1 f8 02             	sar    $0x2,%eax
 804895d:	89 c2                	mov    %eax,%edx
 804895f:	c1 ea 1f             	shr    $0x1f,%edx
 8048962:	01 d0                	add    %edx,%eax
 8048964:	d1 f8                	sar    %eax
 8048966:	74 1b                	je     8048983 <register_tm_clones+0x33>
 8048968:	ba 00 00 00 00       	mov    $0x0,%edx
 804896d:	85 d2                	test   %edx,%edx
 804896f:	74 12                	je     8048983 <register_tm_clones+0x33>
 8048971:	55                   	push   %ebp
 8048972:	89 e5                	mov    %esp,%ebp
 8048974:	83 ec 10             	sub    $0x10,%esp
 8048977:	50                   	push   %eax
 8048978:	68 a0 c3 04 08       	push   $0x804c3a0
 804897d:	ff d2                	call   *%edx
 804897f:	83 c4 10             	add    $0x10,%esp
 8048982:	c9                   	leave  
 8048983:	f3 c3                	repz ret 
 8048985:	8d 74 26 00          	lea    0x0(%esi,%eiz,1),%esi
 8048989:	8d bc 27 00 00 00 00 	lea    0x0(%edi,%eiz,1),%edi

08048990 <__do_global_dtors_aux>:
 8048990:	80 3d c8 c3 04 08 00 	cmpb   $0x0,0x804c3c8
 8048997:	75 13                	jne    80489ac <__do_global_dtors_aux+0x1c>
 8048999:	55                   	push   %ebp
 804899a:	89 e5                	mov    %esp,%ebp
 804899c:	83 ec 08             	sub    $0x8,%esp
 804899f:	e8 7c ff ff ff       	call   8048920 <deregister_tm_clones>
 80489a4:	c6 05 c8 c3 04 08 01 	movb   $0x1,0x804c3c8
 80489ab:	c9                   	leave  
 80489ac:	f3 c3                	repz ret 
 80489ae:	66 90                	xchg   %ax,%ax

080489b0 <frame_dummy>:
 80489b0:	b8 10 bf 04 08       	mov    $0x804bf10,%eax
 80489b5:	8b 10                	mov    (%eax),%edx
 80489b7:	85 d2                	test   %edx,%edx
 80489b9:	75 05                	jne    80489c0 <frame_dummy+0x10>
 80489bb:	eb 93                	jmp    8048950 <register_tm_clones>
 80489bd:	8d 76 00             	lea    0x0(%esi),%esi
 80489c0:	ba 00 00 00 00       	mov    $0x0,%edx
 80489c5:	85 d2                	test   %edx,%edx
 80489c7:	74 f2                	je     80489bb <frame_dummy+0xb>
 80489c9:	55                   	push   %ebp
 80489ca:	89 e5                	mov    %esp,%ebp
 80489cc:	83 ec 14             	sub    $0x14,%esp
 80489cf:	50                   	push   %eax
 80489d0:	ff d2                	call   *%edx
 80489d2:	83 c4 10             	add    $0x10,%esp
 80489d5:	c9                   	leave  
 80489d6:	e9 75 ff ff ff       	jmp    8048950 <register_tm_clones>

080489db <main>:
 80489db:	8d 4c 24 04          	lea    0x4(%esp),%ecx
 80489df:	83 e4 f0             	and    $0xfffffff0,%esp
 80489e2:	ff 71 fc             	pushl  -0x4(%ecx)
 80489e5:	55                   	push   %ebp
 80489e6:	89 e5                	mov    %esp,%ebp
 80489e8:	53                   	push   %ebx
 80489e9:	51                   	push   %ecx
 80489ea:	8b 01                	mov    (%ecx),%eax
 80489ec:	8b 59 04             	mov    0x4(%ecx),%ebx
 80489ef:	83 f8 01             	cmp    $0x1,%eax
 80489f2:	75 0c                	jne    8048a00 <main+0x25>
 80489f4:	a1 c0 c3 04 08       	mov    0x804c3c0,%eax
 80489f9:	a3 d0 c3 04 08       	mov    %eax,0x804c3d0
 80489fe:	eb 5b                	jmp    8048a5b <main+0x80>
 8048a00:	83 f8 02             	cmp    $0x2,%eax
 8048a03:	75 39                	jne    8048a3e <main+0x63>
 8048a05:	83 ec 08             	sub    $0x8,%esp
 8048a08:	68 80 9e 04 08       	push   $0x8049e80
 8048a0d:	ff 73 04             	pushl  0x4(%ebx)
 8048a10:	e8 0b fe ff ff       	call   8048820 <fopen@plt>
 8048a15:	a3 d0 c3 04 08       	mov    %eax,0x804c3d0
 8048a1a:	83 c4 10             	add    $0x10,%esp
 8048a1d:	85 c0                	test   %eax,%eax
 8048a1f:	75 3a                	jne    8048a5b <main+0x80>
 8048a21:	ff 73 04             	pushl  0x4(%ebx)
 8048a24:	ff 33                	pushl  (%ebx)
 8048a26:	68 82 9e 04 08       	push   $0x8049e82
 8048a2b:	6a 01                	push   $0x1
 8048a2d:	e8 0e fe ff ff       	call   8048840 <__printf_chk@plt>
 8048a32:	c7 04 24 08 00 00 00 	movl   $0x8,(%esp)
 8048a39:	e8 a2 fd ff ff       	call   80487e0 <exit@plt>
 8048a3e:	83 ec 04             	sub    $0x4,%esp
 8048a41:	ff 33                	pushl  (%ebx)
 8048a43:	68 9f 9e 04 08       	push   $0x8049e9f
 8048a48:	6a 01                	push   $0x1
 8048a4a:	e8 f1 fd ff ff       	call   8048840 <__printf_chk@plt>
 8048a4f:	c7 04 24 08 00 00 00 	movl   $0x8,(%esp)
 8048a56:	e8 85 fd ff ff       	call   80487e0 <exit@plt>
 8048a5b:	e8 c5 05 00 00       	call   8049025 <initialize_bomb>
 8048a60:	83 ec 0c             	sub    $0xc,%esp
 8048a63:	68 04 9f 04 08       	push   $0x8049f04
 8048a68:	e8 53 fd ff ff       	call   80487c0 <puts@plt>
 8048a6d:	c7 04 24 40 9f 04 08 	movl   $0x8049f40,(%esp)
 8048a74:	e8 47 fd ff ff       	call   80487c0 <puts@plt>
 8048a79:	e8 99 06 00 00       	call   8049117 <read_line>
 8048a7e:	89 04 24             	mov    %eax,(%esp)
 8048a81:	e8 ad 00 00 00       	call   8048b33 <phase_1>
 8048a86:	e8 85 07 00 00       	call   8049210 <phase_defused>
 8048a8b:	c7 04 24 6c 9f 04 08 	movl   $0x8049f6c,(%esp)
 8048a92:	e8 29 fd ff ff       	call   80487c0 <puts@plt>
 8048a97:	e8 7b 06 00 00       	call   8049117 <read_line>
 8048a9c:	89 04 24             	mov    %eax,(%esp)
 8048a9f:	e8 b0 00 00 00       	call   8048b54 <phase_2>
 8048aa4:	e8 67 07 00 00       	call   8049210 <phase_defused>
 8048aa9:	c7 04 24 b9 9e 04 08 	movl   $0x8049eb9,(%esp)
 8048ab0:	e8 0b fd ff ff       	call   80487c0 <puts@plt>
 8048ab5:	e8 5d 06 00 00       	call   8049117 <read_line>
 8048aba:	89 04 24             	mov    %eax,(%esp)
 8048abd:	e8 f5 00 00 00       	call   8048bb7 <phase_3>
 8048ac2:	e8 49 07 00 00       	call   8049210 <phase_defused>
 8048ac7:	c7 04 24 d7 9e 04 08 	movl   $0x8049ed7,(%esp)
 8048ace:	e8 ed fc ff ff       	call   80487c0 <puts@plt>
 8048ad3:	e8 3f 06 00 00       	call   8049117 <read_line>
 8048ad8:	89 04 24             	mov    %eax,(%esp)
 8048adb:	e8 c3 01 00 00       	call   8048ca3 <phase_4>
 8048ae0:	e8 2b 07 00 00       	call   8049210 <phase_defused>
 8048ae5:	c7 04 24 98 9f 04 08 	movl   $0x8049f98,(%esp)
 8048aec:	e8 cf fc ff ff       	call   80487c0 <puts@plt>
 8048af1:	e8 21 06 00 00       	call   8049117 <read_line>
 8048af6:	89 04 24             	mov    %eax,(%esp)
 8048af9:	e8 17 02 00 00       	call   8048d15 <phase_5>
 8048afe:	e8 0d 07 00 00       	call   8049210 <phase_defused>
 8048b03:	c7 04 24 e6 9e 04 08 	movl   $0x8049ee6,(%esp)
 8048b0a:	e8 b1 fc ff ff       	call   80487c0 <puts@plt>
 8048b0f:	e8 03 06 00 00       	call   8049117 <read_line>
 8048b14:	89 04 24             	mov    %eax,(%esp)
 8048b17:	e8 79 02 00 00       	call   8048d95 <phase_6>
 8048b1c:	e8 ef 06 00 00       	call   8049210 <phase_defused>
 8048b21:	83 c4 10             	add    $0x10,%esp
 8048b24:	b8 00 00 00 00       	mov    $0x0,%eax
 8048b29:	8d 65 f8             	lea    -0x8(%ebp),%esp
 8048b2c:	59                   	pop    %ecx
 8048b2d:	5b                   	pop    %ebx
 8048b2e:	5d                   	pop    %ebp
 8048b2f:	8d 61 fc             	lea    -0x4(%ecx),%esp
 8048b32:	c3                   	ret    

08048b33 <phase_1>:
 8048b33:	83 ec 14             	sub    $0x14,%esp
 8048b36:	68 bc 9f 04 08       	push   $0x8049fbc
 8048b3b:	ff 74 24 1c          	pushl  0x1c(%esp)
 8048b3f:	e8 7c 04 00 00       	call   8048fc0 <strings_not_equal>
 8048b44:	83 c4 10             	add    $0x10,%esp
 8048b47:	85 c0                	test   %eax,%eax
 8048b49:	74 05                	je     8048b50 <phase_1+0x1d>
 8048b4b:	e8 67 05 00 00       	call   80490b7 <explode_bomb>
 8048b50:	83 c4 0c             	add    $0xc,%esp
 8048b53:	c3                   	ret    

08048b54 <phase_2>:
 8048b54:	56                   	push   %esi
 8048b55:	53                   	push   %ebx
 8048b56:	83 ec 2c             	sub    $0x2c,%esp
 8048b59:	65 a1 14 00 00 00    	mov    %gs:0x14,%eax
 8048b5f:	89 44 24 24          	mov    %eax,0x24(%esp)
 8048b63:	31 c0                	xor    %eax,%eax
 8048b65:	8d 44 24 0c          	lea    0xc(%esp),%eax
 8048b69:	50                   	push   %eax
 8048b6a:	ff 74 24 3c          	pushl  0x3c(%esp)
 8048b6e:	e8 69 05 00 00       	call   80490dc <read_six_numbers>
 8048b73:	83 c4 10             	add    $0x10,%esp
 8048b76:	83 7c 24 04 01       	cmpl   $0x1,0x4(%esp)
 8048b7b:	74 05                	je     8048b82 <phase_2+0x2e>
 8048b7d:	e8 35 05 00 00       	call   80490b7 <explode_bomb>
 8048b82:	8d 5c 24 04          	lea    0x4(%esp),%ebx
 8048b86:	8d 74 24 18          	lea    0x18(%esp),%esi
 8048b8a:	8b 03                	mov    (%ebx),%eax
 8048b8c:	01 c0                	add    %eax,%eax
 8048b8e:	39 43 04             	cmp    %eax,0x4(%ebx)
 8048b91:	74 05                	je     8048b98 <phase_2+0x44>
 8048b93:	e8 1f 05 00 00       	call   80490b7 <explode_bomb>
 8048b98:	83 c3 04             	add    $0x4,%ebx
 8048b9b:	39 f3                	cmp    %esi,%ebx
 8048b9d:	75 eb                	jne    8048b8a <phase_2+0x36>
 8048b9f:	8b 44 24 1c          	mov    0x1c(%esp),%eax
 8048ba3:	65 33 05 14 00 00 00 	xor    %gs:0x14,%eax
 8048baa:	74 05                	je     8048bb1 <phase_2+0x5d>
 8048bac:	e8 df fb ff ff       	call   8048790 <__stack_chk_fail@plt>
 8048bb1:	83 c4 24             	add    $0x24,%esp
 8048bb4:	5b                   	pop    %ebx
 8048bb5:	5e                   	pop    %esi
 8048bb6:	c3                   	ret    

08048bb7 <phase_3>:
 8048bb7:	83 ec 1c             	sub    $0x1c,%esp
 8048bba:	65 a1 14 00 00 00    	mov    %gs:0x14,%eax
 8048bc0:	89 44 24 0c          	mov    %eax,0xc(%esp)
 8048bc4:	31 c0                	xor    %eax,%eax
 8048bc6:	8d 44 24 08          	lea    0x8(%esp),%eax
 8048bca:	50                   	push   %eax
 8048bcb:	8d 44 24 08          	lea    0x8(%esp),%eax
 8048bcf:	50                   	push   %eax
 8048bd0:	68 63 a1 04 08       	push   $0x804a163
 8048bd5:	ff 74 24 2c          	pushl  0x2c(%esp)
 8048bd9:	e8 32 fc ff ff       	call   8048810 <__isoc99_sscanf@plt>
 8048bde:	83 c4 10             	add    $0x10,%esp
 8048be1:	83 f8 01             	cmp    $0x1,%eax
 8048be4:	7f 05                	jg     8048beb <phase_3+0x34>
 8048be6:	e8 cc 04 00 00       	call   80490b7 <explode_bomb>
 8048beb:	83 7c 24 04 07       	cmpl   $0x7,0x4(%esp)
 8048bf0:	77 3c                	ja     8048c2e <phase_3+0x77>
 8048bf2:	8b 44 24 04          	mov    0x4(%esp),%eax
 8048bf6:	ff 24 85 24 a0 04 08 	jmp    *0x804a024(,%eax,4)
 8048bfd:	b8 ce 02 00 00       	mov    $0x2ce,%eax
 8048c02:	eb 3b                	jmp    8048c3f <phase_3+0x88>
 8048c04:	b8 7b 02 00 00       	mov    $0x27b,%eax
 8048c09:	eb 34                	jmp    8048c3f <phase_3+0x88>
 8048c0b:	b8 70 01 00 00       	mov    $0x170,%eax
 8048c10:	eb 2d                	jmp    8048c3f <phase_3+0x88>
 8048c12:	b8 ac 03 00 00       	mov    $0x3ac,%eax
 8048c17:	eb 26                	jmp    8048c3f <phase_3+0x88>
 8048c19:	b8 e6 00 00 00       	mov    $0xe6,%eax
 8048c1e:	eb 1f                	jmp    8048c3f <phase_3+0x88>
 8048c20:	b8 49 01 00 00       	mov    $0x149,%eax
 8048c25:	eb 18                	jmp    8048c3f <phase_3+0x88>
 8048c27:	b8 ef 02 00 00       	mov    $0x2ef,%eax
 8048c2c:	eb 11                	jmp    8048c3f <phase_3+0x88>
 8048c2e:	e8 84 04 00 00       	call   80490b7 <explode_bomb>
 8048c33:	b8 00 00 00 00       	mov    $0x0,%eax
 8048c38:	eb 05                	jmp    8048c3f <phase_3+0x88>
 8048c3a:	b8 ed 01 00 00       	mov    $0x1ed,%eax
 8048c3f:	3b 44 24 08          	cmp    0x8(%esp),%eax
 8048c43:	74 05                	je     8048c4a <phase_3+0x93>
 8048c45:	e8 6d 04 00 00       	call   80490b7 <explode_bomb>
 8048c4a:	8b 44 24 0c          	mov    0xc(%esp),%eax
 8048c4e:	65 33 05 14 00 00 00 	xor    %gs:0x14,%eax
 8048c55:	74 05                	je     8048c5c <phase_3+0xa5>
 8048c57:	e8 34 fb ff ff       	call   8048790 <__stack_chk_fail@plt>
 8048c5c:	83 c4 1c             	add    $0x1c,%esp
 8048c5f:	c3                   	ret    

08048c60 <func4>:
 8048c60:	57                   	push   %edi
 8048c61:	56                   	push   %esi
 8048c62:	53                   	push   %ebx
 8048c63:	8b 5c 24 10          	mov    0x10(%esp),%ebx
 8048c67:	8b 7c 24 14          	mov    0x14(%esp),%edi
 8048c6b:	85 db                	test   %ebx,%ebx
 8048c6d:	7e 2b                	jle    8048c9a <func4+0x3a>
 8048c6f:	89 f8                	mov    %edi,%eax
 8048c71:	83 fb 01             	cmp    $0x1,%ebx
 8048c74:	74 29                	je     8048c9f <func4+0x3f>
 8048c76:	83 ec 08             	sub    $0x8,%esp
 8048c79:	57                   	push   %edi
 8048c7a:	8d 43 ff             	lea    -0x1(%ebx),%eax
 8048c7d:	50                   	push   %eax
 8048c7e:	e8 dd ff ff ff       	call   8048c60 <func4>
 8048c83:	83 c4 08             	add    $0x8,%esp
 8048c86:	8d 34 07             	lea    (%edi,%eax,1),%esi
 8048c89:	57                   	push   %edi
 8048c8a:	83 eb 02             	sub    $0x2,%ebx
 8048c8d:	53                   	push   %ebx
 8048c8e:	e8 cd ff ff ff       	call   8048c60 <func4>
 8048c93:	83 c4 10             	add    $0x10,%esp
 8048c96:	01 f0                	add    %esi,%eax
 8048c98:	eb 05                	jmp    8048c9f <func4+0x3f>
 8048c9a:	b8 00 00 00 00       	mov    $0x0,%eax
 8048c9f:	5b                   	pop    %ebx
 8048ca0:	5e                   	pop    %esi
 8048ca1:	5f                   	pop    %edi
 8048ca2:	c3                   	ret    

08048ca3 <phase_4>:
 8048ca3:	83 ec 1c             	sub    $0x1c,%esp
 8048ca6:	65 a1 14 00 00 00    	mov    %gs:0x14,%eax
 8048cac:	89 44 24 0c          	mov    %eax,0xc(%esp)
 8048cb0:	31 c0                	xor    %eax,%eax
 8048cb2:	8d 44 24 04          	lea    0x4(%esp),%eax
 8048cb6:	50                   	push   %eax
 8048cb7:	8d 44 24 0c          	lea    0xc(%esp),%eax
 8048cbb:	50                   	push   %eax
 8048cbc:	68 63 a1 04 08       	push   $0x804a163
 8048cc1:	ff 74 24 2c          	pushl  0x2c(%esp)
 8048cc5:	e8 46 fb ff ff       	call   8048810 <__isoc99_sscanf@plt>
 8048cca:	83 c4 10             	add    $0x10,%esp
 8048ccd:	83 f8 02             	cmp    $0x2,%eax
 8048cd0:	75 0c                	jne    8048cde <phase_4+0x3b>
 8048cd2:	8b 44 24 04          	mov    0x4(%esp),%eax
 8048cd6:	83 e8 02             	sub    $0x2,%eax
 8048cd9:	83 f8 02             	cmp    $0x2,%eax
 8048cdc:	76 05                	jbe    8048ce3 <phase_4+0x40>
 8048cde:	e8 d4 03 00 00       	call   80490b7 <explode_bomb>
 8048ce3:	83 ec 08             	sub    $0x8,%esp
 8048ce6:	ff 74 24 0c          	pushl  0xc(%esp)
 8048cea:	6a 08                	push   $0x8
 8048cec:	e8 6f ff ff ff       	call   8048c60 <func4>
 8048cf1:	83 c4 10             	add    $0x10,%esp
 8048cf4:	3b 44 24 08          	cmp    0x8(%esp),%eax
 8048cf8:	74 05                	je     8048cff <phase_4+0x5c>
 8048cfa:	e8 b8 03 00 00       	call   80490b7 <explode_bomb>
 8048cff:	8b 44 24 0c          	mov    0xc(%esp),%eax
 8048d03:	65 33 05 14 00 00 00 	xor    %gs:0x14,%eax
 8048d0a:	74 05                	je     8048d11 <phase_4+0x6e>
 8048d0c:	e8 7f fa ff ff       	call   8048790 <__stack_chk_fail@plt>
 8048d11:	83 c4 1c             	add    $0x1c,%esp
 8048d14:	c3                   	ret    

08048d15 <phase_5>:
 8048d15:	53                   	push   %ebx
 8048d16:	83 ec 24             	sub    $0x24,%esp
 8048d19:	8b 5c 24 2c          	mov    0x2c(%esp),%ebx
 8048d1d:	65 a1 14 00 00 00    	mov    %gs:0x14,%eax
 8048d23:	89 44 24 18          	mov    %eax,0x18(%esp)
 8048d27:	31 c0                	xor    %eax,%eax
 8048d29:	53                   	push   %ebx
 8048d2a:	e8 72 02 00 00       	call   8048fa1 <string_length>
 8048d2f:	83 c4 10             	add    $0x10,%esp
 8048d32:	83 f8 06             	cmp    $0x6,%eax
 8048d35:	74 05                	je     8048d3c <phase_5+0x27>
 8048d37:	e8 7b 03 00 00       	call   80490b7 <explode_bomb>
 8048d3c:	b8 00 00 00 00       	mov    $0x0,%eax
 8048d41:	0f b6 14 03          	movzbl (%ebx,%eax,1),%edx
 8048d45:	83 e2 0f             	and    $0xf,%edx
 8048d48:	0f b6 92 44 a0 04 08 	movzbl 0x804a044(%edx),%edx
 8048d4f:	88 54 04 05          	mov    %dl,0x5(%esp,%eax,1)
 8048d53:	83 c0 01             	add    $0x1,%eax
 8048d56:	83 f8 06             	cmp    $0x6,%eax
 8048d59:	75 e6                	jne    8048d41 <phase_5+0x2c>
 8048d5b:	c6 44 24 0b 00       	movb   $0x0,0xb(%esp)
 8048d60:	83 ec 08             	sub    $0x8,%esp
 8048d63:	68 1a a0 04 08       	push   $0x804a01a
 8048d68:	8d 44 24 11          	lea    0x11(%esp),%eax
 8048d6c:	50                   	push   %eax
 8048d6d:	e8 4e 02 00 00       	call   8048fc0 <strings_not_equal>
 8048d72:	83 c4 10             	add    $0x10,%esp
 8048d75:	85 c0                	test   %eax,%eax
 8048d77:	74 05                	je     8048d7e <phase_5+0x69>
 8048d79:	e8 39 03 00 00       	call   80490b7 <explode_bomb>
 8048d7e:	8b 44 24 0c          	mov    0xc(%esp),%eax
 8048d82:	65 33 05 14 00 00 00 	xor    %gs:0x14,%eax
 8048d89:	74 05                	je     8048d90 <phase_5+0x7b>
 8048d8b:	e8 00 fa ff ff       	call   8048790 <__stack_chk_fail@plt>
 8048d90:	83 c4 18             	add    $0x18,%esp
 8048d93:	5b                   	pop    %ebx
 8048d94:	c3                   	ret    

08048d95 <phase_6>:
 8048d95:	56                   	push   %esi
 8048d96:	53                   	push   %ebx
 8048d97:	83 ec 4c             	sub    $0x4c,%esp
 8048d9a:	65 a1 14 00 00 00    	mov    %gs:0x14,%eax
 8048da0:	89 44 24 44          	mov    %eax,0x44(%esp)
 8048da4:	31 c0                	xor    %eax,%eax
 8048da6:	8d 44 24 14          	lea    0x14(%esp),%eax
 8048daa:	50                   	push   %eax
 8048dab:	ff 74 24 5c          	pushl  0x5c(%esp)
 8048daf:	e8 28 03 00 00       	call   80490dc <read_six_numbers>
 8048db4:	83 c4 10             	add    $0x10,%esp
 8048db7:	be 00 00 00 00       	mov    $0x0,%esi
 8048dbc:	8b 44 b4 0c          	mov    0xc(%esp,%esi,4),%eax
 8048dc0:	83 e8 01             	sub    $0x1,%eax
 8048dc3:	83 f8 05             	cmp    $0x5,%eax
 8048dc6:	76 05                	jbe    8048dcd <phase_6+0x38>
 8048dc8:	e8 ea 02 00 00       	call   80490b7 <explode_bomb>
 8048dcd:	83 c6 01             	add    $0x1,%esi
 8048dd0:	83 fe 06             	cmp    $0x6,%esi
 8048dd3:	74 33                	je     8048e08 <phase_6+0x73>
 8048dd5:	89 f3                	mov    %esi,%ebx
 8048dd7:	8b 44 9c 0c          	mov    0xc(%esp,%ebx,4),%eax
 8048ddb:	39 44 b4 08          	cmp    %eax,0x8(%esp,%esi,4)
 8048ddf:	75 05                	jne    8048de6 <phase_6+0x51>
 8048de1:	e8 d1 02 00 00       	call   80490b7 <explode_bomb>
 8048de6:	83 c3 01             	add    $0x1,%ebx
 8048de9:	83 fb 05             	cmp    $0x5,%ebx
 8048dec:	7e e9                	jle    8048dd7 <phase_6+0x42>
 8048dee:	eb cc                	jmp    8048dbc <phase_6+0x27>
 8048df0:	8b 52 08             	mov    0x8(%edx),%edx
 8048df3:	83 c0 01             	add    $0x1,%eax
 8048df6:	39 c8                	cmp    %ecx,%eax
 8048df8:	75 f6                	jne    8048df0 <phase_6+0x5b>
 8048dfa:	89 54 b4 24          	mov    %edx,0x24(%esp,%esi,4)
 8048dfe:	83 c3 01             	add    $0x1,%ebx
 8048e01:	83 fb 06             	cmp    $0x6,%ebx
 8048e04:	75 07                	jne    8048e0d <phase_6+0x78>
 8048e06:	eb 1c                	jmp    8048e24 <phase_6+0x8f>
 8048e08:	bb 00 00 00 00       	mov    $0x0,%ebx
 8048e0d:	89 de                	mov    %ebx,%esi
 8048e0f:	8b 4c 9c 0c          	mov    0xc(%esp,%ebx,4),%ecx
 8048e13:	b8 01 00 00 00       	mov    $0x1,%eax
 8048e18:	ba 3c c1 04 08       	mov    $0x804c13c,%edx
 8048e1d:	83 f9 01             	cmp    $0x1,%ecx
 8048e20:	7f ce                	jg     8048df0 <phase_6+0x5b>
 8048e22:	eb d6                	jmp    8048dfa <phase_6+0x65>
 8048e24:	8b 5c 24 24          	mov    0x24(%esp),%ebx
 8048e28:	8d 44 24 24          	lea    0x24(%esp),%eax
 8048e2c:	8d 74 24 38          	lea    0x38(%esp),%esi
 8048e30:	89 d9                	mov    %ebx,%ecx
 8048e32:	8b 50 04             	mov    0x4(%eax),%edx
 8048e35:	89 51 08             	mov    %edx,0x8(%ecx)
 8048e38:	83 c0 04             	add    $0x4,%eax
 8048e3b:	89 d1                	mov    %edx,%ecx
 8048e3d:	39 f0                	cmp    %esi,%eax
 8048e3f:	75 f1                	jne    8048e32 <phase_6+0x9d>
 8048e41:	c7 42 08 00 00 00 00 	movl   $0x0,0x8(%edx)
 8048e48:	be 05 00 00 00       	mov    $0x5,%esi
 8048e4d:	8b 43 08             	mov    0x8(%ebx),%eax
 8048e50:	8b 00                	mov    (%eax),%eax
 8048e52:	39 03                	cmp    %eax,(%ebx)
 8048e54:	7e 05                	jle    8048e5b <phase_6+0xc6>
 8048e56:	e8 5c 02 00 00       	call   80490b7 <explode_bomb>
 8048e5b:	8b 5b 08             	mov    0x8(%ebx),%ebx
 8048e5e:	83 ee 01             	sub    $0x1,%esi
 8048e61:	75 ea                	jne    8048e4d <phase_6+0xb8>
 8048e63:	8b 44 24 3c          	mov    0x3c(%esp),%eax
 8048e67:	65 33 05 14 00 00 00 	xor    %gs:0x14,%eax
 8048e6e:	74 05                	je     8048e75 <phase_6+0xe0>
 8048e70:	e8 1b f9 ff ff       	call   8048790 <__stack_chk_fail@plt>
 8048e75:	83 c4 44             	add    $0x44,%esp
 8048e78:	5b                   	pop    %ebx
 8048e79:	5e                   	pop    %esi
 8048e7a:	c3                   	ret    

08048e7b <fun7>:
 8048e7b:	53                   	push   %ebx
 8048e7c:	83 ec 08             	sub    $0x8,%esp
 8048e7f:	8b 54 24 10          	mov    0x10(%esp),%edx
 8048e83:	8b 4c 24 14          	mov    0x14(%esp),%ecx
 8048e87:	85 d2                	test   %edx,%edx
 8048e89:	74 37                	je     8048ec2 <fun7+0x47>
 8048e8b:	8b 1a                	mov    (%edx),%ebx
 8048e8d:	39 cb                	cmp    %ecx,%ebx
 8048e8f:	7e 13                	jle    8048ea4 <fun7+0x29>
 8048e91:	83 ec 08             	sub    $0x8,%esp
 8048e94:	51                   	push   %ecx
 8048e95:	ff 72 04             	pushl  0x4(%edx)
 8048e98:	e8 de ff ff ff       	call   8048e7b <fun7>
 8048e9d:	83 c4 10             	add    $0x10,%esp
 8048ea0:	01 c0                	add    %eax,%eax
 8048ea2:	eb 23                	jmp    8048ec7 <fun7+0x4c>
 8048ea4:	b8 00 00 00 00       	mov    $0x0,%eax
 8048ea9:	39 cb                	cmp    %ecx,%ebx
 8048eab:	74 1a                	je     8048ec7 <fun7+0x4c>
 8048ead:	83 ec 08             	sub    $0x8,%esp
 8048eb0:	51                   	push   %ecx
 8048eb1:	ff 72 08             	pushl  0x8(%edx)
 8048eb4:	e8 c2 ff ff ff       	call   8048e7b <fun7>
 8048eb9:	83 c4 10             	add    $0x10,%esp
 8048ebc:	8d 44 00 01          	lea    0x1(%eax,%eax,1),%eax
 8048ec0:	eb 05                	jmp    8048ec7 <fun7+0x4c>
 8048ec2:	b8 ff ff ff ff       	mov    $0xffffffff,%eax
 8048ec7:	83 c4 08             	add    $0x8,%esp
 8048eca:	5b                   	pop    %ebx
 8048ecb:	c3                   	ret    

08048ecc <secret_phase>:
 8048ecc:	53                   	push   %ebx
 8048ecd:	83 ec 08             	sub    $0x8,%esp
 8048ed0:	e8 42 02 00 00       	call   8049117 <read_line>
 8048ed5:	83 ec 04             	sub    $0x4,%esp
 8048ed8:	6a 0a                	push   $0xa
 8048eda:	6a 00                	push   $0x0
 8048edc:	50                   	push   %eax
 8048edd:	e8 9e f9 ff ff       	call   8048880 <strtol@plt>
 8048ee2:	89 c3                	mov    %eax,%ebx
 8048ee4:	8d 40 ff             	lea    -0x1(%eax),%eax
 8048ee7:	83 c4 10             	add    $0x10,%esp
 8048eea:	3d e8 03 00 00       	cmp    $0x3e8,%eax
 8048eef:	76 05                	jbe    8048ef6 <secret_phase+0x2a>
 8048ef1:	e8 c1 01 00 00       	call   80490b7 <explode_bomb>
 8048ef6:	83 ec 08             	sub    $0x8,%esp
 8048ef9:	53                   	push   %ebx
 8048efa:	68 88 c0 04 08       	push   $0x804c088
 8048eff:	e8 77 ff ff ff       	call   8048e7b <fun7>
 8048f04:	83 c4 10             	add    $0x10,%esp
 8048f07:	83 f8 04             	cmp    $0x4,%eax
 8048f0a:	74 05                	je     8048f11 <secret_phase+0x45>
 8048f0c:	e8 a6 01 00 00       	call   80490b7 <explode_bomb>
 8048f11:	83 ec 0c             	sub    $0xc,%esp
 8048f14:	68 f4 9f 04 08       	push   $0x8049ff4
 8048f19:	e8 a2 f8 ff ff       	call   80487c0 <puts@plt>
 8048f1e:	e8 ed 02 00 00       	call   8049210 <phase_defused>
 8048f23:	83 c4 18             	add    $0x18,%esp
 8048f26:	5b                   	pop    %ebx
 8048f27:	c3                   	ret    

08048f28 <sig_handler>:
 8048f28:	83 ec 18             	sub    $0x18,%esp
 8048f2b:	68 54 a0 04 08       	push   $0x804a054
 8048f30:	e8 8b f8 ff ff       	call   80487c0 <puts@plt>
 8048f35:	c7 04 24 03 00 00 00 	movl   $0x3,(%esp)
 8048f3c:	e8 2f f8 ff ff       	call   8048770 <sleep@plt>
 8048f41:	83 c4 08             	add    $0x8,%esp
 8048f44:	68 16 a1 04 08       	push   $0x804a116
 8048f49:	6a 01                	push   $0x1
 8048f4b:	e8 f0 f8 ff ff       	call   8048840 <__printf_chk@plt>
 8048f50:	83 c4 04             	add    $0x4,%esp
 8048f53:	ff 35 c4 c3 04 08    	pushl  0x804c3c4
 8048f59:	e8 e2 f7 ff ff       	call   8048740 <fflush@plt>
 8048f5e:	c7 04 24 01 00 00 00 	movl   $0x1,(%esp)
 8048f65:	e8 06 f8 ff ff       	call   8048770 <sleep@plt>
 8048f6a:	c7 04 24 1e a1 04 08 	movl   $0x804a11e,(%esp)
 8048f71:	e8 4a f8 ff ff       	call   80487c0 <puts@plt>
 8048f76:	c7 04 24 10 00 00 00 	movl   $0x10,(%esp)
 8048f7d:	e8 5e f8 ff ff       	call   80487e0 <exit@plt>

08048f82 <invalid_phase>:
 8048f82:	83 ec 10             	sub    $0x10,%esp
 8048f85:	ff 74 24 14          	pushl  0x14(%esp)
 8048f89:	68 26 a1 04 08       	push   $0x804a126
 8048f8e:	6a 01                	push   $0x1
 8048f90:	e8 ab f8 ff ff       	call   8048840 <__printf_chk@plt>
 8048f95:	c7 04 24 08 00 00 00 	movl   $0x8,(%esp)
 8048f9c:	e8 3f f8 ff ff       	call   80487e0 <exit@plt>

08048fa1 <string_length>:
 8048fa1:	8b 54 24 04          	mov    0x4(%esp),%edx
 8048fa5:	80 3a 00             	cmpb   $0x0,(%edx)
 8048fa8:	74 10                	je     8048fba <string_length+0x19>
 8048faa:	b8 00 00 00 00       	mov    $0x0,%eax
 8048faf:	83 c0 01             	add    $0x1,%eax
 8048fb2:	80 3c 02 00          	cmpb   $0x0,(%edx,%eax,1)
 8048fb6:	75 f7                	jne    8048faf <string_length+0xe>
 8048fb8:	f3 c3                	repz ret 
 8048fba:	b8 00 00 00 00       	mov    $0x0,%eax
 8048fbf:	c3                   	ret    

08048fc0 <strings_not_equal>:
 8048fc0:	57                   	push   %edi
 8048fc1:	56                   	push   %esi
 8048fc2:	53                   	push   %ebx
 8048fc3:	8b 5c 24 10          	mov    0x10(%esp),%ebx
 8048fc7:	8b 74 24 14          	mov    0x14(%esp),%esi
 8048fcb:	53                   	push   %ebx
 8048fcc:	e8 d0 ff ff ff       	call   8048fa1 <string_length>
 8048fd1:	89 c7                	mov    %eax,%edi
 8048fd3:	89 34 24             	mov    %esi,(%esp)
 8048fd6:	e8 c6 ff ff ff       	call   8048fa1 <string_length>
 8048fdb:	83 c4 04             	add    $0x4,%esp
 8048fde:	ba 01 00 00 00       	mov    $0x1,%edx
 8048fe3:	39 c7                	cmp    %eax,%edi
 8048fe5:	75 38                	jne    804901f <strings_not_equal+0x5f>
 8048fe7:	0f b6 03             	movzbl (%ebx),%eax
 8048fea:	84 c0                	test   %al,%al
 8048fec:	74 1e                	je     804900c <strings_not_equal+0x4c>
 8048fee:	3a 06                	cmp    (%esi),%al
 8048ff0:	74 06                	je     8048ff8 <strings_not_equal+0x38>
 8048ff2:	eb 1f                	jmp    8049013 <strings_not_equal+0x53>
 8048ff4:	3a 06                	cmp    (%esi),%al
 8048ff6:	75 22                	jne    804901a <strings_not_equal+0x5a>
 8048ff8:	83 c3 01             	add    $0x1,%ebx
 8048ffb:	83 c6 01             	add    $0x1,%esi
 8048ffe:	0f b6 03             	movzbl (%ebx),%eax
 8049001:	84 c0                	test   %al,%al
 8049003:	75 ef                	jne    8048ff4 <strings_not_equal+0x34>
 8049005:	ba 00 00 00 00       	mov    $0x0,%edx
 804900a:	eb 13                	jmp    804901f <strings_not_equal+0x5f>
 804900c:	ba 00 00 00 00       	mov    $0x0,%edx
 8049011:	eb 0c                	jmp    804901f <strings_not_equal+0x5f>
 8049013:	ba 01 00 00 00       	mov    $0x1,%edx
 8049018:	eb 05                	jmp    804901f <strings_not_equal+0x5f>
 804901a:	ba 01 00 00 00       	mov    $0x1,%edx
 804901f:	89 d0                	mov    %edx,%eax
 8049021:	5b                   	pop    %ebx
 8049022:	5e                   	pop    %esi
 8049023:	5f                   	pop    %edi
 8049024:	c3                   	ret    

08049025 <initialize_bomb>:
 8049025:	83 ec 14             	sub    $0x14,%esp
 8049028:	68 28 8f 04 08       	push   $0x8048f28
 804902d:	6a 02                	push   $0x2
 804902f:	e8 2c f7 ff ff       	call   8048760 <signal@plt>
 8049034:	83 c4 1c             	add    $0x1c,%esp
 8049037:	c3                   	ret    

08049038 <initialize_bomb_solve>:
 8049038:	f3 c3                	repz ret 

0804903a <blank_line>:
 804903a:	56                   	push   %esi
 804903b:	53                   	push   %ebx
 804903c:	83 ec 04             	sub    $0x4,%esp
 804903f:	8b 74 24 10          	mov    0x10(%esp),%esi
 8049043:	eb 14                	jmp    8049059 <blank_line+0x1f>
 8049045:	e8 66 f8 ff ff       	call   80488b0 <__ctype_b_loc@plt>
 804904a:	83 c6 01             	add    $0x1,%esi
 804904d:	0f be db             	movsbl %bl,%ebx
 8049050:	8b 00                	mov    (%eax),%eax
 8049052:	f6 44 58 01 20       	testb  $0x20,0x1(%eax,%ebx,2)
 8049057:	74 0e                	je     8049067 <blank_line+0x2d>
 8049059:	0f b6 1e             	movzbl (%esi),%ebx
 804905c:	84 db                	test   %bl,%bl
 804905e:	75 e5                	jne    8049045 <blank_line+0xb>
 8049060:	b8 01 00 00 00       	mov    $0x1,%eax
 8049065:	eb 05                	jmp    804906c <blank_line+0x32>
 8049067:	b8 00 00 00 00       	mov    $0x0,%eax
 804906c:	83 c4 04             	add    $0x4,%esp
 804906f:	5b                   	pop    %ebx
 8049070:	5e                   	pop    %esi
 8049071:	c3                   	ret    

08049072 <skip>:
 8049072:	53                   	push   %ebx
 8049073:	83 ec 08             	sub    $0x8,%esp
 8049076:	83 ec 04             	sub    $0x4,%esp
 8049079:	ff 35 d0 c3 04 08    	pushl  0x804c3d0
 804907f:	6a 50                	push   $0x50
 8049081:	a1 cc c3 04 08       	mov    0x804c3cc,%eax
 8049086:	8d 04 80             	lea    (%eax,%eax,4),%eax
 8049089:	c1 e0 04             	shl    $0x4,%eax
 804908c:	05 e0 c3 04 08       	add    $0x804c3e0,%eax
 8049091:	50                   	push   %eax
 8049092:	e8 b9 f6 ff ff       	call   8048750 <fgets@plt>
 8049097:	89 c3                	mov    %eax,%ebx
 8049099:	83 c4 10             	add    $0x10,%esp
 804909c:	85 c0                	test   %eax,%eax
 804909e:	74 10                	je     80490b0 <skip+0x3e>
 80490a0:	83 ec 0c             	sub    $0xc,%esp
 80490a3:	50                   	push   %eax
 80490a4:	e8 91 ff ff ff       	call   804903a <blank_line>
 80490a9:	83 c4 10             	add    $0x10,%esp
 80490ac:	85 c0                	test   %eax,%eax
 80490ae:	75 c6                	jne    8049076 <skip+0x4>
 80490b0:	89 d8                	mov    %ebx,%eax
 80490b2:	83 c4 08             	add    $0x8,%esp
 80490b5:	5b                   	pop    %ebx
 80490b6:	c3                   	ret    

080490b7 <explode_bomb>:
 80490b7:	83 ec 18             	sub    $0x18,%esp
 80490ba:	68 37 a1 04 08       	push   $0x804a137
 80490bf:	e8 fc f6 ff ff       	call   80487c0 <puts@plt>
 80490c4:	c7 04 24 40 a1 04 08 	movl   $0x804a140,(%esp)
 80490cb:	e8 f0 f6 ff ff       	call   80487c0 <puts@plt>
 80490d0:	c7 04 24 08 00 00 00 	movl   $0x8,(%esp)
 80490d7:	e8 04 f7 ff ff       	call   80487e0 <exit@plt>

080490dc <read_six_numbers>:
 80490dc:	83 ec 0c             	sub    $0xc,%esp
 80490df:	8b 44 24 14          	mov    0x14(%esp),%eax
 80490e3:	8d 50 14             	lea    0x14(%eax),%edx
 80490e6:	52                   	push   %edx
 80490e7:	8d 50 10             	lea    0x10(%eax),%edx
 80490ea:	52                   	push   %edx
 80490eb:	8d 50 0c             	lea    0xc(%eax),%edx
 80490ee:	52                   	push   %edx
 80490ef:	8d 50 08             	lea    0x8(%eax),%edx
 80490f2:	52                   	push   %edx
 80490f3:	8d 50 04             	lea    0x4(%eax),%edx
 80490f6:	52                   	push   %edx
 80490f7:	50                   	push   %eax
 80490f8:	68 57 a1 04 08       	push   $0x804a157
 80490fd:	ff 74 24 2c          	pushl  0x2c(%esp)
 8049101:	e8 0a f7 ff ff       	call   8048810 <__isoc99_sscanf@plt>
 8049106:	83 c4 20             	add    $0x20,%esp
 8049109:	83 f8 05             	cmp    $0x5,%eax
 804910c:	7f 05                	jg     8049113 <read_six_numbers+0x37>
 804910e:	e8 a4 ff ff ff       	call   80490b7 <explode_bomb>
 8049113:	83 c4 0c             	add    $0xc,%esp
 8049116:	c3                   	ret    

08049117 <read_line>:
 8049117:	57                   	push   %edi
 8049118:	56                   	push   %esi
 8049119:	53                   	push   %ebx
 804911a:	e8 53 ff ff ff       	call   8049072 <skip>
 804911f:	85 c0                	test   %eax,%eax
 8049121:	75 70                	jne    8049193 <read_line+0x7c>
 8049123:	a1 c0 c3 04 08       	mov    0x804c3c0,%eax
 8049128:	39 05 d0 c3 04 08    	cmp    %eax,0x804c3d0
 804912e:	75 19                	jne    8049149 <read_line+0x32>
 8049130:	83 ec 0c             	sub    $0xc,%esp
 8049133:	68 69 a1 04 08       	push   $0x804a169
 8049138:	e8 83 f6 ff ff       	call   80487c0 <puts@plt>
 804913d:	c7 04 24 08 00 00 00 	movl   $0x8,(%esp)
 8049144:	e8 97 f6 ff ff       	call   80487e0 <exit@plt>
 8049149:	83 ec 0c             	sub    $0xc,%esp
 804914c:	68 87 a1 04 08       	push   $0x804a187
 8049151:	e8 5a f6 ff ff       	call   80487b0 <getenv@plt>
 8049156:	83 c4 10             	add    $0x10,%esp
 8049159:	85 c0                	test   %eax,%eax
 804915b:	74 0a                	je     8049167 <read_line+0x50>
 804915d:	83 ec 0c             	sub    $0xc,%esp
 8049160:	6a 00                	push   $0x0
 8049162:	e8 79 f6 ff ff       	call   80487e0 <exit@plt>
 8049167:	a1 c0 c3 04 08       	mov    0x804c3c0,%eax
 804916c:	a3 d0 c3 04 08       	mov    %eax,0x804c3d0
 8049171:	e8 fc fe ff ff       	call   8049072 <skip>
 8049176:	85 c0                	test   %eax,%eax
 8049178:	75 19                	jne    8049193 <read_line+0x7c>
 804917a:	83 ec 0c             	sub    $0xc,%esp
 804917d:	68 69 a1 04 08       	push   $0x804a169
 8049182:	e8 39 f6 ff ff       	call   80487c0 <puts@plt>
 8049187:	c7 04 24 00 00 00 00 	movl   $0x0,(%esp)
 804918e:	e8 4d f6 ff ff       	call   80487e0 <exit@plt>
 8049193:	8b 15 cc c3 04 08    	mov    0x804c3cc,%edx
 8049199:	8d 1c 92             	lea    (%edx,%edx,4),%ebx
 804919c:	c1 e3 04             	shl    $0x4,%ebx
 804919f:	81 c3 e0 c3 04 08    	add    $0x804c3e0,%ebx
 80491a5:	b8 00 00 00 00       	mov    $0x0,%eax
 80491aa:	b9 ff ff ff ff       	mov    $0xffffffff,%ecx
 80491af:	89 df                	mov    %ebx,%edi
 80491b1:	f2 ae                	repnz scas %es:(%edi),%al
 80491b3:	f7 d1                	not    %ecx
 80491b5:	83 e9 01             	sub    $0x1,%ecx
 80491b8:	83 f9 4e             	cmp    $0x4e,%ecx
 80491bb:	7e 36                	jle    80491f3 <read_line+0xdc>
 80491bd:	83 ec 0c             	sub    $0xc,%esp
 80491c0:	68 92 a1 04 08       	push   $0x804a192
 80491c5:	e8 f6 f5 ff ff       	call   80487c0 <puts@plt>
 80491ca:	a1 cc c3 04 08       	mov    0x804c3cc,%eax
 80491cf:	8d 50 01             	lea    0x1(%eax),%edx
 80491d2:	89 15 cc c3 04 08    	mov    %edx,0x804c3cc
 80491d8:	6b c0 50             	imul   $0x50,%eax,%eax
 80491db:	05 e0 c3 04 08       	add    $0x804c3e0,%eax
 80491e0:	be ad a1 04 08       	mov    $0x804a1ad,%esi
 80491e5:	b9 04 00 00 00       	mov    $0x4,%ecx
 80491ea:	89 c7                	mov    %eax,%edi
 80491ec:	f3 a5                	rep movsl %ds:(%esi),%es:(%edi)
 80491ee:	e8 c4 fe ff ff       	call   80490b7 <explode_bomb>
 80491f3:	8d 04 92             	lea    (%edx,%edx,4),%eax
 80491f6:	c1 e0 04             	shl    $0x4,%eax
 80491f9:	c6 84 01 df c3 04 08 	movb   $0x0,0x804c3df(%ecx,%eax,1)
 8049200:	00 
 8049201:	83 c2 01             	add    $0x1,%edx
 8049204:	89 15 cc c3 04 08    	mov    %edx,0x804c3cc
 804920a:	89 d8                	mov    %ebx,%eax
 804920c:	5b                   	pop    %ebx
 804920d:	5e                   	pop    %esi
 804920e:	5f                   	pop    %edi
 804920f:	c3                   	ret    

08049210 <phase_defused>:
 8049210:	83 ec 6c             	sub    $0x6c,%esp
 8049213:	65 a1 14 00 00 00    	mov    %gs:0x14,%eax
 8049219:	89 44 24 5c          	mov    %eax,0x5c(%esp)
 804921d:	31 c0                	xor    %eax,%eax
 804921f:	83 3d cc c3 04 08 06 	cmpl   $0x6,0x804c3cc
 8049226:	75 73                	jne    804929b <phase_defused+0x8b>
 8049228:	83 ec 0c             	sub    $0xc,%esp
 804922b:	8d 44 24 18          	lea    0x18(%esp),%eax
 804922f:	50                   	push   %eax
 8049230:	8d 44 24 18          	lea    0x18(%esp),%eax
 8049234:	50                   	push   %eax
 8049235:	8d 44 24 18          	lea    0x18(%esp),%eax
 8049239:	50                   	push   %eax
 804923a:	68 bd a1 04 08       	push   $0x804a1bd
 804923f:	68 d0 c4 04 08       	push   $0x804c4d0
 8049244:	e8 c7 f5 ff ff       	call   8048810 <__isoc99_sscanf@plt>
 8049249:	83 c4 20             	add    $0x20,%esp
 804924c:	83 f8 03             	cmp    $0x3,%eax
 804924f:	75 3a                	jne    804928b <phase_defused+0x7b>
 8049251:	83 ec 08             	sub    $0x8,%esp
 8049254:	68 c6 a1 04 08       	push   $0x804a1c6
 8049259:	8d 44 24 18          	lea    0x18(%esp),%eax
 804925d:	50                   	push   %eax
 804925e:	e8 5d fd ff ff       	call   8048fc0 <strings_not_equal>
 8049263:	83 c4 10             	add    $0x10,%esp
 8049266:	85 c0                	test   %eax,%eax
 8049268:	75 21                	jne    804928b <phase_defused+0x7b>
 804926a:	83 ec 0c             	sub    $0xc,%esp
 804926d:	68 8c a0 04 08       	push   $0x804a08c
 8049272:	e8 49 f5 ff ff       	call   80487c0 <puts@plt>
 8049277:	c7 04 24 b4 a0 04 08 	movl   $0x804a0b4,(%esp)
 804927e:	e8 3d f5 ff ff       	call   80487c0 <puts@plt>
 8049283:	e8 44 fc ff ff       	call   8048ecc <secret_phase>
 8049288:	83 c4 10             	add    $0x10,%esp
 804928b:	83 ec 0c             	sub    $0xc,%esp
 804928e:	68 ec a0 04 08       	push   $0x804a0ec
 8049293:	e8 28 f5 ff ff       	call   80487c0 <puts@plt>
 8049298:	83 c4 10             	add    $0x10,%esp
 804929b:	8b 44 24 5c          	mov    0x5c(%esp),%eax
 804929f:	65 33 05 14 00 00 00 	xor    %gs:0x14,%eax
 80492a6:	74 05                	je     80492ad <phase_defused+0x9d>
 80492a8:	e8 e3 f4 ff ff       	call   8048790 <__stack_chk_fail@plt>
 80492ad:	83 c4 6c             	add    $0x6c,%esp
 80492b0:	c3                   	ret    

080492b1 <sigalrm_handler>:
 80492b1:	83 ec 0c             	sub    $0xc,%esp
 80492b4:	6a 00                	push   $0x0
 80492b6:	68 1c a2 04 08       	push   $0x804a21c
 80492bb:	6a 01                	push   $0x1
 80492bd:	ff 35 a0 c3 04 08    	pushl  0x804c3a0
 80492c3:	e8 98 f5 ff ff       	call   8048860 <__fprintf_chk@plt>
 80492c8:	c7 04 24 01 00 00 00 	movl   $0x1,(%esp)
 80492cf:	e8 0c f5 ff ff       	call   80487e0 <exit@plt>

080492d4 <rio_readlineb>:
 80492d4:	55                   	push   %ebp
 80492d5:	57                   	push   %edi
 80492d6:	56                   	push   %esi
 80492d7:	53                   	push   %ebx
 80492d8:	83 ec 2c             	sub    $0x2c,%esp
 80492db:	89 d7                	mov    %edx,%edi
 80492dd:	89 4c 24 0c          	mov    %ecx,0xc(%esp)
 80492e1:	65 8b 15 14 00 00 00 	mov    %gs:0x14,%edx
 80492e8:	89 54 24 1c          	mov    %edx,0x1c(%esp)
 80492ec:	31 d2                	xor    %edx,%edx
 80492ee:	83 f9 01             	cmp    $0x1,%ecx
 80492f1:	76 79                	jbe    804936c <rio_readlineb+0x98>
 80492f3:	89 c3                	mov    %eax,%ebx
 80492f5:	89 4c 24 08          	mov    %ecx,0x8(%esp)
 80492f9:	bd 01 00 00 00       	mov    $0x1,%ebp
 80492fe:	8d 73 0c             	lea    0xc(%ebx),%esi
 8049301:	eb 2d                	jmp    8049330 <rio_readlineb+0x5c>
 8049303:	83 ec 04             	sub    $0x4,%esp
 8049306:	68 00 20 00 00       	push   $0x2000
 804930b:	56                   	push   %esi
 804930c:	ff 33                	pushl  (%ebx)
 804930e:	e8 1d f4 ff ff       	call   8048730 <read@plt>
 8049313:	89 43 04             	mov    %eax,0x4(%ebx)
 8049316:	83 c4 10             	add    $0x10,%esp
 8049319:	85 c0                	test   %eax,%eax
 804931b:	79 0c                	jns    8049329 <rio_readlineb+0x55>
 804931d:	e8 0e f5 ff ff       	call   8048830 <__errno_location@plt>
 8049322:	83 38 04             	cmpl   $0x4,(%eax)
 8049325:	74 09                	je     8049330 <rio_readlineb+0x5c>
 8049327:	eb 62                	jmp    804938b <rio_readlineb+0xb7>
 8049329:	85 c0                	test   %eax,%eax
 804932b:	74 63                	je     8049390 <rio_readlineb+0xbc>
 804932d:	89 73 08             	mov    %esi,0x8(%ebx)
 8049330:	8b 43 04             	mov    0x4(%ebx),%eax
 8049333:	85 c0                	test   %eax,%eax
 8049335:	7e cc                	jle    8049303 <rio_readlineb+0x2f>
 8049337:	8b 4b 08             	mov    0x8(%ebx),%ecx
 804933a:	0f b6 11             	movzbl (%ecx),%edx
 804933d:	88 54 24 1b          	mov    %dl,0x1b(%esp)
 8049341:	83 c1 01             	add    $0x1,%ecx
 8049344:	89 4b 08             	mov    %ecx,0x8(%ebx)
 8049347:	83 e8 01             	sub    $0x1,%eax
 804934a:	89 43 04             	mov    %eax,0x4(%ebx)
 804934d:	83 c7 01             	add    $0x1,%edi
 8049350:	88 57 ff             	mov    %dl,-0x1(%edi)
 8049353:	80 fa 0a             	cmp    $0xa,%dl
 8049356:	75 09                	jne    8049361 <rio_readlineb+0x8d>
 8049358:	eb 1d                	jmp    8049377 <rio_readlineb+0xa3>
 804935a:	83 fd 01             	cmp    $0x1,%ebp
 804935d:	75 18                	jne    8049377 <rio_readlineb+0xa3>
 804935f:	eb 1b                	jmp    804937c <rio_readlineb+0xa8>
 8049361:	83 c5 01             	add    $0x1,%ebp
 8049364:	3b 6c 24 08          	cmp    0x8(%esp),%ebp
 8049368:	74 09                	je     8049373 <rio_readlineb+0x9f>
 804936a:	eb c4                	jmp    8049330 <rio_readlineb+0x5c>
 804936c:	bd 01 00 00 00       	mov    $0x1,%ebp
 8049371:	eb 04                	jmp    8049377 <rio_readlineb+0xa3>
 8049373:	8b 6c 24 0c          	mov    0xc(%esp),%ebp
 8049377:	c6 07 00             	movb   $0x0,(%edi)
 804937a:	89 e8                	mov    %ebp,%eax
 804937c:	8b 54 24 1c          	mov    0x1c(%esp),%edx
 8049380:	65 33 15 14 00 00 00 	xor    %gs:0x14,%edx
 8049387:	74 17                	je     80493a0 <rio_readlineb+0xcc>
 8049389:	eb 10                	jmp    804939b <rio_readlineb+0xc7>
 804938b:	b8 ff ff ff ff       	mov    $0xffffffff,%eax
 8049390:	85 c0                	test   %eax,%eax
 8049392:	74 c6                	je     804935a <rio_readlineb+0x86>
 8049394:	b8 ff ff ff ff       	mov    $0xffffffff,%eax
 8049399:	eb e1                	jmp    804937c <rio_readlineb+0xa8>
 804939b:	e8 f0 f3 ff ff       	call   8048790 <__stack_chk_fail@plt>
 80493a0:	83 c4 2c             	add    $0x2c,%esp
 80493a3:	5b                   	pop    %ebx
 80493a4:	5e                   	pop    %esi
 80493a5:	5f                   	pop    %edi
 80493a6:	5d                   	pop    %ebp
 80493a7:	c3                   	ret    

080493a8 <submitr>:
 80493a8:	55                   	push   %ebp
 80493a9:	57                   	push   %edi
 80493aa:	56                   	push   %esi
 80493ab:	53                   	push   %ebx
 80493ac:	81 ec 60 a0 00 00    	sub    $0xa060,%esp
 80493b2:	8b b4 24 74 a0 00 00 	mov    0xa074(%esp),%esi
 80493b9:	8b 84 24 7c a0 00 00 	mov    0xa07c(%esp),%eax
 80493c0:	89 44 24 10          	mov    %eax,0x10(%esp)
 80493c4:	8b 84 24 80 a0 00 00 	mov    0xa080(%esp),%eax
 80493cb:	89 44 24 14          	mov    %eax,0x14(%esp)
 80493cf:	8b 84 24 84 a0 00 00 	mov    0xa084(%esp),%eax
 80493d6:	89 44 24 18          	mov    %eax,0x18(%esp)
 80493da:	8b 9c 24 88 a0 00 00 	mov    0xa088(%esp),%ebx
 80493e1:	8b 84 24 8c a0 00 00 	mov    0xa08c(%esp),%eax
 80493e8:	89 44 24 1c          	mov    %eax,0x1c(%esp)
 80493ec:	65 a1 14 00 00 00    	mov    %gs:0x14,%eax
 80493f2:	89 84 24 50 a0 00 00 	mov    %eax,0xa050(%esp)
 80493f9:	31 c0                	xor    %eax,%eax
 80493fb:	c7 44 24 30 00 00 00 	movl   $0x0,0x30(%esp)
 8049402:	00 
 8049403:	6a 00                	push   $0x0
 8049405:	6a 01                	push   $0x1
 8049407:	6a 02                	push   $0x2
 8049409:	e8 42 f4 ff ff       	call   8048850 <socket@plt>
 804940e:	89 44 24 18          	mov    %eax,0x18(%esp)
 8049412:	83 c4 10             	add    $0x10,%esp
 8049415:	85 c0                	test   %eax,%eax
 8049417:	79 52                	jns    804946b <submitr+0xc3>
 8049419:	8b 44 24 18          	mov    0x18(%esp),%eax
 804941d:	c7 00 45 72 72 6f    	movl   $0x6f727245,(%eax)
 8049423:	c7 40 04 72 3a 20 43 	movl   $0x43203a72,0x4(%eax)
 804942a:	c7 40 08 6c 69 65 6e 	movl   $0x6e65696c,0x8(%eax)
 8049431:	c7 40 0c 74 20 75 6e 	movl   $0x6e752074,0xc(%eax)
 8049438:	c7 40 10 61 62 6c 65 	movl   $0x656c6261,0x10(%eax)
 804943f:	c7 40 14 20 74 6f 20 	movl   $0x206f7420,0x14(%eax)
 8049446:	c7 40 18 63 72 65 61 	movl   $0x61657263,0x18(%eax)
 804944d:	c7 40 1c 74 65 20 73 	movl   $0x73206574,0x1c(%eax)
 8049454:	c7 40 20 6f 63 6b 65 	movl   $0x656b636f,0x20(%eax)
 804945b:	66 c7 40 24 74 00    	movw   $0x74,0x24(%eax)
 8049461:	b8 ff ff ff ff       	mov    $0xffffffff,%eax
 8049466:	e9 3f 06 00 00       	jmp    8049aaa <submitr+0x702>
 804946b:	83 ec 0c             	sub    $0xc,%esp
 804946e:	56                   	push   %esi
 804946f:	e8 fc f3 ff ff       	call   8048870 <gethostbyname@plt>
 8049474:	83 c4 10             	add    $0x10,%esp
 8049477:	85 c0                	test   %eax,%eax
 8049479:	75 73                	jne    80494ee <submitr+0x146>
 804947b:	8b 44 24 18          	mov    0x18(%esp),%eax
 804947f:	c7 00 45 72 72 6f    	movl   $0x6f727245,(%eax)
 8049485:	c7 40 04 72 3a 20 44 	movl   $0x44203a72,0x4(%eax)
 804948c:	c7 40 08 4e 53 20 69 	movl   $0x6920534e,0x8(%eax)
 8049493:	c7 40 0c 73 20 75 6e 	movl   $0x6e752073,0xc(%eax)
 804949a:	c7 40 10 61 62 6c 65 	movl   $0x656c6261,0x10(%eax)
 80494a1:	c7 40 14 20 74 6f 20 	movl   $0x206f7420,0x14(%eax)
 80494a8:	c7 40 18 72 65 73 6f 	movl   $0x6f736572,0x18(%eax)
 80494af:	c7 40 1c 6c 76 65 20 	movl   $0x2065766c,0x1c(%eax)
 80494b6:	c7 40 20 73 65 72 76 	movl   $0x76726573,0x20(%eax)
 80494bd:	c7 40 24 65 72 20 61 	movl   $0x61207265,0x24(%eax)
 80494c4:	c7 40 28 64 64 72 65 	movl   $0x65726464,0x28(%eax)
 80494cb:	66 c7 40 2c 73 73    	movw   $0x7373,0x2c(%eax)
 80494d1:	c6 40 2e 00          	movb   $0x0,0x2e(%eax)
 80494d5:	83 ec 0c             	sub    $0xc,%esp
 80494d8:	ff 74 24 14          	pushl  0x14(%esp)
 80494dc:	e8 bf f3 ff ff       	call   80488a0 <close@plt>
 80494e1:	83 c4 10             	add    $0x10,%esp
 80494e4:	b8 ff ff ff ff       	mov    $0xffffffff,%eax
 80494e9:	e9 bc 05 00 00       	jmp    8049aaa <submitr+0x702>
 80494ee:	8d 74 24 30          	lea    0x30(%esp),%esi
 80494f2:	c7 44 24 30 00 00 00 	movl   $0x0,0x30(%esp)
 80494f9:	00 
 80494fa:	c7 44 24 34 00 00 00 	movl   $0x0,0x34(%esp)
 8049501:	00 
 8049502:	c7 44 24 38 00 00 00 	movl   $0x0,0x38(%esp)
 8049509:	00 
 804950a:	c7 44 24 3c 00 00 00 	movl   $0x0,0x3c(%esp)
 8049511:	00 
 8049512:	66 c7 44 24 30 02 00 	movw   $0x2,0x30(%esp)
 8049519:	6a 0c                	push   $0xc
 804951b:	ff 70 0c             	pushl  0xc(%eax)
 804951e:	8b 40 10             	mov    0x10(%eax),%eax
 8049521:	ff 30                	pushl  (%eax)
 8049523:	8d 44 24 40          	lea    0x40(%esp),%eax
 8049527:	50                   	push   %eax
 8049528:	e8 a3 f2 ff ff       	call   80487d0 <__memmove_chk@plt>
 804952d:	0f b7 84 24 84 a0 00 	movzwl 0xa084(%esp),%eax
 8049534:	00 
 8049535:	66 c1 c8 08          	ror    $0x8,%ax
 8049539:	66 89 44 24 42       	mov    %ax,0x42(%esp)
 804953e:	83 c4 0c             	add    $0xc,%esp
 8049541:	6a 10                	push   $0x10
 8049543:	56                   	push   %esi
 8049544:	ff 74 24 14          	pushl  0x14(%esp)
 8049548:	e8 43 f3 ff ff       	call   8048890 <connect@plt>
 804954d:	83 c4 10             	add    $0x10,%esp
 8049550:	85 c0                	test   %eax,%eax
 8049552:	79 65                	jns    80495b9 <submitr+0x211>
 8049554:	8b 44 24 18          	mov    0x18(%esp),%eax
 8049558:	c7 00 45 72 72 6f    	movl   $0x6f727245,(%eax)
 804955e:	c7 40 04 72 3a 20 55 	movl   $0x55203a72,0x4(%eax)
 8049565:	c7 40 08 6e 61 62 6c 	movl   $0x6c62616e,0x8(%eax)
 804956c:	c7 40 0c 65 20 74 6f 	movl   $0x6f742065,0xc(%eax)
 8049573:	c7 40 10 20 63 6f 6e 	movl   $0x6e6f6320,0x10(%eax)
 804957a:	c7 40 14 6e 65 63 74 	movl   $0x7463656e,0x14(%eax)
 8049581:	c7 40 18 20 74 6f 20 	movl   $0x206f7420,0x18(%eax)
 8049588:	c7 40 1c 74 68 65 20 	movl   $0x20656874,0x1c(%eax)
 804958f:	c7 40 20 73 65 72 76 	movl   $0x76726573,0x20(%eax)
 8049596:	66 c7 40 24 65 72    	movw   $0x7265,0x24(%eax)
 804959c:	c6 40 26 00          	movb   $0x0,0x26(%eax)
 80495a0:	83 ec 0c             	sub    $0xc,%esp
 80495a3:	ff 74 24 14          	pushl  0x14(%esp)
 80495a7:	e8 f4 f2 ff ff       	call   80488a0 <close@plt>
 80495ac:	83 c4 10             	add    $0x10,%esp
 80495af:	b8 ff ff ff ff       	mov    $0xffffffff,%eax
 80495b4:	e9 f1 04 00 00       	jmp    8049aaa <submitr+0x702>
 80495b9:	be ff ff ff ff       	mov    $0xffffffff,%esi
 80495be:	b8 00 00 00 00       	mov    $0x0,%eax
 80495c3:	89 f1                	mov    %esi,%ecx
 80495c5:	89 df                	mov    %ebx,%edi
 80495c7:	f2 ae                	repnz scas %es:(%edi),%al
 80495c9:	f7 d1                	not    %ecx
 80495cb:	89 cd                	mov    %ecx,%ebp
 80495cd:	89 f1                	mov    %esi,%ecx
 80495cf:	8b 7c 24 0c          	mov    0xc(%esp),%edi
 80495d3:	f2 ae                	repnz scas %es:(%edi),%al
 80495d5:	89 4c 24 1c          	mov    %ecx,0x1c(%esp)
 80495d9:	89 f1                	mov    %esi,%ecx
 80495db:	8b 7c 24 10          	mov    0x10(%esp),%edi
 80495df:	f2 ae                	repnz scas %es:(%edi),%al
 80495e1:	89 ca                	mov    %ecx,%edx
 80495e3:	f7 d2                	not    %edx
 80495e5:	89 f1                	mov    %esi,%ecx
 80495e7:	8b 7c 24 14          	mov    0x14(%esp),%edi
 80495eb:	f2 ae                	repnz scas %es:(%edi),%al
 80495ed:	2b 54 24 1c          	sub    0x1c(%esp),%edx
 80495f1:	29 ca                	sub    %ecx,%edx
 80495f3:	8d 44 6d fd          	lea    -0x3(%ebp,%ebp,2),%eax
 80495f7:	8d 44 02 7b          	lea    0x7b(%edx,%eax,1),%eax
 80495fb:	3d 00 20 00 00       	cmp    $0x2000,%eax
 8049600:	76 7e                	jbe    8049680 <submitr+0x2d8>
 8049602:	8b 44 24 18          	mov    0x18(%esp),%eax
 8049606:	c7 00 45 72 72 6f    	movl   $0x6f727245,(%eax)
 804960c:	c7 40 04 72 3a 20 52 	movl   $0x52203a72,0x4(%eax)
 8049613:	c7 40 08 65 73 75 6c 	movl   $0x6c757365,0x8(%eax)
 804961a:	c7 40 0c 74 20 73 74 	movl   $0x74732074,0xc(%eax)
 8049621:	c7 40 10 72 69 6e 67 	movl   $0x676e6972,0x10(%eax)
 8049628:	c7 40 14 20 74 6f 6f 	movl   $0x6f6f7420,0x14(%eax)
 804962f:	c7 40 18 20 6c 61 72 	movl   $0x72616c20,0x18(%eax)
 8049636:	c7 40 1c 67 65 2e 20 	movl   $0x202e6567,0x1c(%eax)
 804963d:	c7 40 20 49 6e 63 72 	movl   $0x72636e49,0x20(%eax)
 8049644:	c7 40 24 65 61 73 65 	movl   $0x65736165,0x24(%eax)
 804964b:	c7 40 28 20 53 55 42 	movl   $0x42555320,0x28(%eax)
 8049652:	c7 40 2c 4d 49 54 52 	movl   $0x5254494d,0x2c(%eax)
 8049659:	c7 40 30 5f 4d 41 58 	movl   $0x58414d5f,0x30(%eax)
 8049660:	c7 40 34 42 55 46 00 	movl   $0x465542,0x34(%eax)
 8049667:	83 ec 0c             	sub    $0xc,%esp
 804966a:	ff 74 24 14          	pushl  0x14(%esp)
 804966e:	e8 2d f2 ff ff       	call   80488a0 <close@plt>
 8049673:	83 c4 10             	add    $0x10,%esp
 8049676:	b8 ff ff ff ff       	mov    $0xffffffff,%eax
 804967b:	e9 2a 04 00 00       	jmp    8049aaa <submitr+0x702>
 8049680:	8d 94 24 4c 40 00 00 	lea    0x404c(%esp),%edx
 8049687:	b9 00 08 00 00       	mov    $0x800,%ecx
 804968c:	b8 00 00 00 00       	mov    $0x0,%eax
 8049691:	89 d7                	mov    %edx,%edi
 8049693:	f3 ab                	rep stos %eax,%es:(%edi)
 8049695:	b9 ff ff ff ff       	mov    $0xffffffff,%ecx
 804969a:	89 df                	mov    %ebx,%edi
 804969c:	f2 ae                	repnz scas %es:(%edi),%al
 804969e:	f7 d1                	not    %ecx
 80496a0:	89 ce                	mov    %ecx,%esi
 80496a2:	83 ee 01             	sub    $0x1,%esi
 80496a5:	0f 84 5c 04 00 00    	je     8049b07 <submitr+0x75f>
 80496ab:	89 d5                	mov    %edx,%ebp
 80496ad:	bf d9 ff 00 00       	mov    $0xffd9,%edi
 80496b2:	0f b6 13             	movzbl (%ebx),%edx
 80496b5:	8d 4a d6             	lea    -0x2a(%edx),%ecx
 80496b8:	b8 01 00 00 00       	mov    $0x1,%eax
 80496bd:	80 f9 0f             	cmp    $0xf,%cl
 80496c0:	77 0a                	ja     80496cc <submitr+0x324>
 80496c2:	89 f8                	mov    %edi,%eax
 80496c4:	d3 e8                	shr    %cl,%eax
 80496c6:	83 f0 01             	xor    $0x1,%eax
 80496c9:	83 e0 01             	and    $0x1,%eax
 80496cc:	80 fa 5f             	cmp    $0x5f,%dl
 80496cf:	0f 94 c1             	sete   %cl
 80496d2:	38 c1                	cmp    %al,%cl
 80496d4:	73 0c                	jae    80496e2 <submitr+0x33a>
 80496d6:	89 d0                	mov    %edx,%eax
 80496d8:	83 e0 df             	and    $0xffffffdf,%eax
 80496db:	83 e8 41             	sub    $0x41,%eax
 80496de:	3c 19                	cmp    $0x19,%al
 80496e0:	77 08                	ja     80496ea <submitr+0x342>
 80496e2:	88 55 00             	mov    %dl,0x0(%ebp)
 80496e5:	8d 6d 01             	lea    0x1(%ebp),%ebp
 80496e8:	eb 62                	jmp    804974c <submitr+0x3a4>
 80496ea:	80 fa 20             	cmp    $0x20,%dl
 80496ed:	75 09                	jne    80496f8 <submitr+0x350>
 80496ef:	c6 45 00 2b          	movb   $0x2b,0x0(%ebp)
 80496f3:	8d 6d 01             	lea    0x1(%ebp),%ebp
 80496f6:	eb 54                	jmp    804974c <submitr+0x3a4>
 80496f8:	8d 42 e0             	lea    -0x20(%edx),%eax
 80496fb:	3c 5f                	cmp    $0x5f,%al
 80496fd:	76 09                	jbe    8049708 <submitr+0x360>
 80496ff:	80 fa 09             	cmp    $0x9,%dl
 8049702:	0f 85 bb 03 00 00    	jne    8049ac3 <submitr+0x71b>
 8049708:	83 ec 0c             	sub    $0xc,%esp
 804970b:	0f b6 d2             	movzbl %dl,%edx
 804970e:	52                   	push   %edx
 804970f:	68 28 a3 04 08       	push   $0x804a328
 8049714:	6a 08                	push   $0x8
 8049716:	6a 01                	push   $0x1
 8049718:	8d 84 24 68 80 00 00 	lea    0x8068(%esp),%eax
 804971f:	50                   	push   %eax
 8049720:	e8 9b f1 ff ff       	call   80488c0 <__sprintf_chk@plt>
 8049725:	0f b6 84 24 6c 80 00 	movzbl 0x806c(%esp),%eax
 804972c:	00 
 804972d:	88 45 00             	mov    %al,0x0(%ebp)
 8049730:	0f b6 84 24 6d 80 00 	movzbl 0x806d(%esp),%eax
 8049737:	00 
 8049738:	88 45 01             	mov    %al,0x1(%ebp)
 804973b:	0f b6 84 24 6e 80 00 	movzbl 0x806e(%esp),%eax
 8049742:	00 
 8049743:	88 45 02             	mov    %al,0x2(%ebp)
 8049746:	83 c4 20             	add    $0x20,%esp
 8049749:	8d 6d 03             	lea    0x3(%ebp),%ebp
 804974c:	83 c3 01             	add    $0x1,%ebx
 804974f:	83 ee 01             	sub    $0x1,%esi
 8049752:	0f 85 5a ff ff ff    	jne    80496b2 <submitr+0x30a>
 8049758:	e9 aa 03 00 00       	jmp    8049b07 <submitr+0x75f>
 804975d:	83 ec 04             	sub    $0x4,%esp
 8049760:	53                   	push   %ebx
 8049761:	56                   	push   %esi
 8049762:	55                   	push   %ebp
 8049763:	e8 98 f0 ff ff       	call   8048800 <write@plt>
 8049768:	83 c4 10             	add    $0x10,%esp
 804976b:	85 c0                	test   %eax,%eax
 804976d:	7f 0f                	jg     804977e <submitr+0x3d6>
 804976f:	e8 bc f0 ff ff       	call   8048830 <__errno_location@plt>
 8049774:	83 38 04             	cmpl   $0x4,(%eax)
 8049777:	75 0f                	jne    8049788 <submitr+0x3e0>
 8049779:	b8 00 00 00 00       	mov    $0x0,%eax
 804977e:	01 c6                	add    %eax,%esi
 8049780:	29 c3                	sub    %eax,%ebx
 8049782:	75 d9                	jne    804975d <submitr+0x3b5>
 8049784:	85 ff                	test   %edi,%edi
 8049786:	79 69                	jns    80497f1 <submitr+0x449>
 8049788:	8b 44 24 18          	mov    0x18(%esp),%eax
 804978c:	c7 00 45 72 72 6f    	movl   $0x6f727245,(%eax)
 8049792:	c7 40 04 72 3a 20 43 	movl   $0x43203a72,0x4(%eax)
 8049799:	c7 40 08 6c 69 65 6e 	movl   $0x6e65696c,0x8(%eax)
 80497a0:	c7 40 0c 74 20 75 6e 	movl   $0x6e752074,0xc(%eax)
 80497a7:	c7 40 10 61 62 6c 65 	movl   $0x656c6261,0x10(%eax)
 80497ae:	c7 40 14 20 74 6f 20 	movl   $0x206f7420,0x14(%eax)
 80497b5:	c7 40 18 77 72 69 74 	movl   $0x74697277,0x18(%eax)
 80497bc:	c7 40 1c 65 20 74 6f 	movl   $0x6f742065,0x1c(%eax)
 80497c3:	c7 40 20 20 74 68 65 	movl   $0x65687420,0x20(%eax)
 80497ca:	c7 40 24 20 73 65 72 	movl   $0x72657320,0x24(%eax)
 80497d1:	c7 40 28 76 65 72 00 	movl   $0x726576,0x28(%eax)
 80497d8:	83 ec 0c             	sub    $0xc,%esp
 80497db:	ff 74 24 14          	pushl  0x14(%esp)
 80497df:	e8 bc f0 ff ff       	call   80488a0 <close@plt>
 80497e4:	83 c4 10             	add    $0x10,%esp
 80497e7:	b8 ff ff ff ff       	mov    $0xffffffff,%eax
 80497ec:	e9 b9 02 00 00       	jmp    8049aaa <submitr+0x702>
 80497f1:	8b 44 24 08          	mov    0x8(%esp),%eax
 80497f5:	89 44 24 40          	mov    %eax,0x40(%esp)
 80497f9:	c7 44 24 44 00 00 00 	movl   $0x0,0x44(%esp)
 8049800:	00 
 8049801:	8d 44 24 4c          	lea    0x4c(%esp),%eax
 8049805:	89 44 24 48          	mov    %eax,0x48(%esp)
 8049809:	b9 00 20 00 00       	mov    $0x2000,%ecx
 804980e:	8d 94 24 4c 20 00 00 	lea    0x204c(%esp),%edx
 8049815:	8d 44 24 40          	lea    0x40(%esp),%eax
 8049819:	e8 b6 fa ff ff       	call   80492d4 <rio_readlineb>
 804981e:	85 c0                	test   %eax,%eax
 8049820:	7f 7d                	jg     804989f <submitr+0x4f7>
 8049822:	8b 44 24 18          	mov    0x18(%esp),%eax
 8049826:	c7 00 45 72 72 6f    	movl   $0x6f727245,(%eax)
 804982c:	c7 40 04 72 3a 20 43 	movl   $0x43203a72,0x4(%eax)
 8049833:	c7 40 08 6c 69 65 6e 	movl   $0x6e65696c,0x8(%eax)
 804983a:	c7 40 0c 74 20 75 6e 	movl   $0x6e752074,0xc(%eax)
 8049841:	c7 40 10 61 62 6c 65 	movl   $0x656c6261,0x10(%eax)
 8049848:	c7 40 14 20 74 6f 20 	movl   $0x206f7420,0x14(%eax)
 804984f:	c7 40 18 72 65 61 64 	movl   $0x64616572,0x18(%eax)
 8049856:	c7 40 1c 20 66 69 72 	movl   $0x72696620,0x1c(%eax)
 804985d:	c7 40 20 73 74 20 68 	movl   $0x68207473,0x20(%eax)
 8049864:	c7 40 24 65 61 64 65 	movl   $0x65646165,0x24(%eax)
 804986b:	c7 40 28 72 20 66 72 	movl   $0x72662072,0x28(%eax)
 8049872:	c7 40 2c 6f 6d 20 73 	movl   $0x73206d6f,0x2c(%eax)
 8049879:	c7 40 30 65 72 76 65 	movl   $0x65767265,0x30(%eax)
 8049880:	66 c7 40 34 72 00    	movw   $0x72,0x34(%eax)
 8049886:	83 ec 0c             	sub    $0xc,%esp
 8049889:	ff 74 24 14          	pushl  0x14(%esp)
 804988d:	e8 0e f0 ff ff       	call   80488a0 <close@plt>
 8049892:	83 c4 10             	add    $0x10,%esp
 8049895:	b8 ff ff ff ff       	mov    $0xffffffff,%eax
 804989a:	e9 0b 02 00 00       	jmp    8049aaa <submitr+0x702>
 804989f:	83 ec 0c             	sub    $0xc,%esp
 80498a2:	8d 84 24 58 80 00 00 	lea    0x8058(%esp),%eax
 80498a9:	50                   	push   %eax
 80498aa:	8d 44 24 3c          	lea    0x3c(%esp),%eax
 80498ae:	50                   	push   %eax
 80498af:	8d 84 24 60 60 00 00 	lea    0x6060(%esp),%eax
 80498b6:	50                   	push   %eax
 80498b7:	68 2f a3 04 08       	push   $0x804a32f
 80498bc:	8d 84 24 68 20 00 00 	lea    0x2068(%esp),%eax
 80498c3:	50                   	push   %eax
 80498c4:	e8 47 ef ff ff       	call   8048810 <__isoc99_sscanf@plt>
 80498c9:	8b 44 24 4c          	mov    0x4c(%esp),%eax
 80498cd:	83 c4 20             	add    $0x20,%esp
 80498d0:	3d c8 00 00 00       	cmp    $0xc8,%eax
 80498d5:	0f 84 c4 00 00 00    	je     804999f <submitr+0x5f7>
 80498db:	83 ec 08             	sub    $0x8,%esp
 80498de:	8d 94 24 54 80 00 00 	lea    0x8054(%esp),%edx
 80498e5:	52                   	push   %edx
 80498e6:	50                   	push   %eax
 80498e7:	68 40 a2 04 08       	push   $0x804a240
 80498ec:	6a ff                	push   $0xffffffff
 80498ee:	6a 01                	push   $0x1
 80498f0:	ff 74 24 34          	pushl  0x34(%esp)
 80498f4:	e8 c7 ef ff ff       	call   80488c0 <__sprintf_chk@plt>
 80498f9:	83 c4 14             	add    $0x14,%esp
 80498fc:	ff 74 24 14          	pushl  0x14(%esp)
 8049900:	e8 9b ef ff ff       	call   80488a0 <close@plt>
 8049905:	83 c4 10             	add    $0x10,%esp
 8049908:	b8 ff ff ff ff       	mov    $0xffffffff,%eax
 804990d:	e9 98 01 00 00       	jmp    8049aaa <submitr+0x702>
 8049912:	b9 00 20 00 00       	mov    $0x2000,%ecx
 8049917:	8d 94 24 4c 20 00 00 	lea    0x204c(%esp),%edx
 804991e:	8d 44 24 40          	lea    0x40(%esp),%eax
 8049922:	e8 ad f9 ff ff       	call   80492d4 <rio_readlineb>
 8049927:	85 c0                	test   %eax,%eax
 8049929:	7f 74                	jg     804999f <submitr+0x5f7>
 804992b:	8b 44 24 18          	mov    0x18(%esp),%eax
 804992f:	c7 00 45 72 72 6f    	movl   $0x6f727245,(%eax)
 8049935:	c7 40 04 72 3a 20 43 	movl   $0x43203a72,0x4(%eax)
 804993c:	c7 40 08 6c 69 65 6e 	movl   $0x6e65696c,0x8(%eax)
 8049943:	c7 40 0c 74 20 75 6e 	movl   $0x6e752074,0xc(%eax)
 804994a:	c7 40 10 61 62 6c 65 	movl   $0x656c6261,0x10(%eax)
 8049951:	c7 40 14 20 74 6f 20 	movl   $0x206f7420,0x14(%eax)
 8049958:	c7 40 18 72 65 61 64 	movl   $0x64616572,0x18(%eax)
 804995f:	c7 40 1c 20 68 65 61 	movl   $0x61656820,0x1c(%eax)
 8049966:	c7 40 20 64 65 72 73 	movl   $0x73726564,0x20(%eax)
 804996d:	c7 40 24 20 66 72 6f 	movl   $0x6f726620,0x24(%eax)
 8049974:	c7 40 28 6d 20 73 65 	movl   $0x6573206d,0x28(%eax)
 804997b:	c7 40 2c 72 76 65 72 	movl   $0x72657672,0x2c(%eax)
 8049982:	c6 40 30 00          	movb   $0x0,0x30(%eax)
 8049986:	83 ec 0c             	sub    $0xc,%esp
 8049989:	ff 74 24 14          	pushl  0x14(%esp)
 804998d:	e8 0e ef ff ff       	call   80488a0 <close@plt>
 8049992:	83 c4 10             	add    $0x10,%esp
 8049995:	b8 ff ff ff ff       	mov    $0xffffffff,%eax
 804999a:	e9 0b 01 00 00       	jmp    8049aaa <submitr+0x702>
 804999f:	80 bc 24 4c 20 00 00 	cmpb   $0xd,0x204c(%esp)
 80499a6:	0d 
 80499a7:	0f 85 65 ff ff ff    	jne    8049912 <submitr+0x56a>
 80499ad:	80 bc 24 4d 20 00 00 	cmpb   $0xa,0x204d(%esp)
 80499b4:	0a 
 80499b5:	0f 85 57 ff ff ff    	jne    8049912 <submitr+0x56a>
 80499bb:	80 bc 24 4e 20 00 00 	cmpb   $0x0,0x204e(%esp)
 80499c2:	00 
 80499c3:	0f 85 49 ff ff ff    	jne    8049912 <submitr+0x56a>
 80499c9:	b9 00 20 00 00       	mov    $0x2000,%ecx
 80499ce:	8d 94 24 4c 20 00 00 	lea    0x204c(%esp),%edx
 80499d5:	8d 44 24 40          	lea    0x40(%esp),%eax
 80499d9:	e8 f6 f8 ff ff       	call   80492d4 <rio_readlineb>
 80499de:	85 c0                	test   %eax,%eax
 80499e0:	7f 7b                	jg     8049a5d <submitr+0x6b5>
 80499e2:	8b 44 24 18          	mov    0x18(%esp),%eax
 80499e6:	c7 00 45 72 72 6f    	movl   $0x6f727245,(%eax)
 80499ec:	c7 40 04 72 3a 20 43 	movl   $0x43203a72,0x4(%eax)
 80499f3:	c7 40 08 6c 69 65 6e 	movl   $0x6e65696c,0x8(%eax)
 80499fa:	c7 40 0c 74 20 75 6e 	movl   $0x6e752074,0xc(%eax)
 8049a01:	c7 40 10 61 62 6c 65 	movl   $0x656c6261,0x10(%eax)
 8049a08:	c7 40 14 20 74 6f 20 	movl   $0x206f7420,0x14(%eax)
 8049a0f:	c7 40 18 72 65 61 64 	movl   $0x64616572,0x18(%eax)
 8049a16:	c7 40 1c 20 73 74 61 	movl   $0x61747320,0x1c(%eax)
 8049a1d:	c7 40 20 74 75 73 20 	movl   $0x20737574,0x20(%eax)
 8049a24:	c7 40 24 6d 65 73 73 	movl   $0x7373656d,0x24(%eax)
 8049a2b:	c7 40 28 61 67 65 20 	movl   $0x20656761,0x28(%eax)
 8049a32:	c7 40 2c 66 72 6f 6d 	movl   $0x6d6f7266,0x2c(%eax)
 8049a39:	c7 40 30 20 73 65 72 	movl   $0x72657320,0x30(%eax)
 8049a40:	c7 40 34 76 65 72 00 	movl   $0x726576,0x34(%eax)
 8049a47:	83 ec 0c             	sub    $0xc,%esp
 8049a4a:	ff 74 24 14          	pushl  0x14(%esp)
 8049a4e:	e8 4d ee ff ff       	call   80488a0 <close@plt>
 8049a53:	83 c4 10             	add    $0x10,%esp
 8049a56:	b8 ff ff ff ff       	mov    $0xffffffff,%eax
 8049a5b:	eb 4d                	jmp    8049aaa <submitr+0x702>
 8049a5d:	83 ec 08             	sub    $0x8,%esp
 8049a60:	8d 84 24 54 20 00 00 	lea    0x2054(%esp),%eax
 8049a67:	50                   	push   %eax
 8049a68:	8b 7c 24 24          	mov    0x24(%esp),%edi
 8049a6c:	57                   	push   %edi
 8049a6d:	e8 2e ed ff ff       	call   80487a0 <strcpy@plt>
 8049a72:	83 c4 04             	add    $0x4,%esp
 8049a75:	ff 74 24 14          	pushl  0x14(%esp)
 8049a79:	e8 22 ee ff ff       	call   80488a0 <close@plt>
 8049a7e:	0f b6 17             	movzbl (%edi),%edx
 8049a81:	b8 4f 00 00 00       	mov    $0x4f,%eax
 8049a86:	83 c4 10             	add    $0x10,%esp
 8049a89:	29 d0                	sub    %edx,%eax
 8049a8b:	75 13                	jne    8049aa0 <submitr+0x6f8>
 8049a8d:	0f b6 57 01          	movzbl 0x1(%edi),%edx
 8049a91:	b8 4b 00 00 00       	mov    $0x4b,%eax
 8049a96:	29 d0                	sub    %edx,%eax
 8049a98:	75 06                	jne    8049aa0 <submitr+0x6f8>
 8049a9a:	0f b6 47 02          	movzbl 0x2(%edi),%eax
 8049a9e:	f7 d8                	neg    %eax
 8049aa0:	85 c0                	test   %eax,%eax
 8049aa2:	0f 95 c0             	setne  %al
 8049aa5:	0f b6 c0             	movzbl %al,%eax
 8049aa8:	f7 d8                	neg    %eax
 8049aaa:	8b bc 24 4c a0 00 00 	mov    0xa04c(%esp),%edi
 8049ab1:	65 33 3d 14 00 00 00 	xor    %gs:0x14,%edi
 8049ab8:	0f 84 a9 00 00 00    	je     8049b67 <submitr+0x7bf>
 8049abe:	e9 9f 00 00 00       	jmp    8049b62 <submitr+0x7ba>
 8049ac3:	a1 70 a2 04 08       	mov    0x804a270,%eax
 8049ac8:	8b 7c 24 18          	mov    0x18(%esp),%edi
 8049acc:	89 07                	mov    %eax,(%edi)
 8049ace:	a1 af a2 04 08       	mov    0x804a2af,%eax
 8049ad3:	89 47 3f             	mov    %eax,0x3f(%edi)
 8049ad6:	89 f8                	mov    %edi,%eax
 8049ad8:	83 c7 04             	add    $0x4,%edi
 8049adb:	83 e7 fc             	and    $0xfffffffc,%edi
 8049ade:	29 f8                	sub    %edi,%eax
 8049ae0:	be 70 a2 04 08       	mov    $0x804a270,%esi
 8049ae5:	29 c6                	sub    %eax,%esi
 8049ae7:	83 c0 43             	add    $0x43,%eax
 8049aea:	c1 e8 02             	shr    $0x2,%eax
 8049aed:	89 c1                	mov    %eax,%ecx
 8049aef:	f3 a5                	rep movsl %ds:(%esi),%es:(%edi)
 8049af1:	83 ec 0c             	sub    $0xc,%esp
 8049af4:	ff 74 24 14          	pushl  0x14(%esp)
 8049af8:	e8 a3 ed ff ff       	call   80488a0 <close@plt>
 8049afd:	83 c4 10             	add    $0x10,%esp
 8049b00:	b8 ff ff ff ff       	mov    $0xffffffff,%eax
 8049b05:	eb a3                	jmp    8049aaa <submitr+0x702>
 8049b07:	8d 84 24 4c 40 00 00 	lea    0x404c(%esp),%eax
 8049b0e:	50                   	push   %eax
 8049b0f:	ff 74 24 18          	pushl  0x18(%esp)
 8049b13:	ff 74 24 18          	pushl  0x18(%esp)
 8049b17:	ff 74 24 18          	pushl  0x18(%esp)
 8049b1b:	68 b4 a2 04 08       	push   $0x804a2b4
 8049b20:	68 00 20 00 00       	push   $0x2000
 8049b25:	6a 01                	push   $0x1
 8049b27:	8d bc 24 68 20 00 00 	lea    0x2068(%esp),%edi
 8049b2e:	57                   	push   %edi
 8049b2f:	e8 8c ed ff ff       	call   80488c0 <__sprintf_chk@plt>
 8049b34:	b8 00 00 00 00       	mov    $0x0,%eax
 8049b39:	b9 ff ff ff ff       	mov    $0xffffffff,%ecx
 8049b3e:	f2 ae                	repnz scas %es:(%edi),%al
 8049b40:	f7 d1                	not    %ecx
 8049b42:	8d 79 ff             	lea    -0x1(%ecx),%edi
 8049b45:	83 c4 20             	add    $0x20,%esp
 8049b48:	89 fb                	mov    %edi,%ebx
 8049b4a:	8d b4 24 4c 20 00 00 	lea    0x204c(%esp),%esi
 8049b51:	8b 6c 24 08          	mov    0x8(%esp),%ebp
 8049b55:	85 ff                	test   %edi,%edi
 8049b57:	0f 85 00 fc ff ff    	jne    804975d <submitr+0x3b5>
 8049b5d:	e9 8f fc ff ff       	jmp    80497f1 <submitr+0x449>
 8049b62:	e8 29 ec ff ff       	call   8048790 <__stack_chk_fail@plt>
 8049b67:	81 c4 5c a0 00 00    	add    $0xa05c,%esp
 8049b6d:	5b                   	pop    %ebx
 8049b6e:	5e                   	pop    %esi
 8049b6f:	5f                   	pop    %edi
 8049b70:	5d                   	pop    %ebp
 8049b71:	c3                   	ret    

08049b72 <init_timeout>:
 8049b72:	53                   	push   %ebx
 8049b73:	83 ec 08             	sub    $0x8,%esp
 8049b76:	8b 5c 24 10          	mov    0x10(%esp),%ebx
 8049b7a:	85 db                	test   %ebx,%ebx
 8049b7c:	74 24                	je     8049ba2 <init_timeout+0x30>
 8049b7e:	83 ec 08             	sub    $0x8,%esp
 8049b81:	68 b1 92 04 08       	push   $0x80492b1
 8049b86:	6a 0e                	push   $0xe
 8049b88:	e8 d3 eb ff ff       	call   8048760 <signal@plt>
 8049b8d:	85 db                	test   %ebx,%ebx
 8049b8f:	b8 00 00 00 00       	mov    $0x0,%eax
 8049b94:	0f 48 d8             	cmovs  %eax,%ebx
 8049b97:	89 1c 24             	mov    %ebx,(%esp)
 8049b9a:	e8 e1 eb ff ff       	call   8048780 <alarm@plt>
 8049b9f:	83 c4 10             	add    $0x10,%esp
 8049ba2:	83 c4 08             	add    $0x8,%esp
 8049ba5:	5b                   	pop    %ebx
 8049ba6:	c3                   	ret    

08049ba7 <init_driver>:
 8049ba7:	57                   	push   %edi
 8049ba8:	56                   	push   %esi
 8049ba9:	53                   	push   %ebx
 8049baa:	83 ec 28             	sub    $0x28,%esp
 8049bad:	8b 74 24 38          	mov    0x38(%esp),%esi
 8049bb1:	65 a1 14 00 00 00    	mov    %gs:0x14,%eax
 8049bb7:	89 44 24 24          	mov    %eax,0x24(%esp)
 8049bbb:	31 c0                	xor    %eax,%eax
 8049bbd:	6a 01                	push   $0x1
 8049bbf:	6a 0d                	push   $0xd
 8049bc1:	e8 9a eb ff ff       	call   8048760 <signal@plt>
 8049bc6:	83 c4 08             	add    $0x8,%esp
 8049bc9:	6a 01                	push   $0x1
 8049bcb:	6a 1d                	push   $0x1d
 8049bcd:	e8 8e eb ff ff       	call   8048760 <signal@plt>
 8049bd2:	83 c4 08             	add    $0x8,%esp
 8049bd5:	6a 01                	push   $0x1
 8049bd7:	6a 1d                	push   $0x1d
 8049bd9:	e8 82 eb ff ff       	call   8048760 <signal@plt>
 8049bde:	83 c4 0c             	add    $0xc,%esp
 8049be1:	6a 00                	push   $0x0
 8049be3:	6a 01                	push   $0x1
 8049be5:	6a 02                	push   $0x2
 8049be7:	e8 64 ec ff ff       	call   8048850 <socket@plt>
 8049bec:	83 c4 10             	add    $0x10,%esp
 8049bef:	85 c0                	test   %eax,%eax
 8049bf1:	79 4e                	jns    8049c41 <init_driver+0x9a>
 8049bf3:	c7 06 45 72 72 6f    	movl   $0x6f727245,(%esi)
 8049bf9:	c7 46 04 72 3a 20 43 	movl   $0x43203a72,0x4(%esi)
 8049c00:	c7 46 08 6c 69 65 6e 	movl   $0x6e65696c,0x8(%esi)
 8049c07:	c7 46 0c 74 20 75 6e 	movl   $0x6e752074,0xc(%esi)
 8049c0e:	c7 46 10 61 62 6c 65 	movl   $0x656c6261,0x10(%esi)
 8049c15:	c7 46 14 20 74 6f 20 	movl   $0x206f7420,0x14(%esi)
 8049c1c:	c7 46 18 63 72 65 61 	movl   $0x61657263,0x18(%esi)
 8049c23:	c7 46 1c 74 65 20 73 	movl   $0x73206574,0x1c(%esi)
 8049c2a:	c7 46 20 6f 63 6b 65 	movl   $0x656b636f,0x20(%esi)
 8049c31:	66 c7 46 24 74 00    	movw   $0x74,0x24(%esi)
 8049c37:	b8 ff ff ff ff       	mov    $0xffffffff,%eax
 8049c3c:	e9 1f 01 00 00       	jmp    8049d60 <init_driver+0x1b9>
 8049c41:	89 c3                	mov    %eax,%ebx
 8049c43:	83 ec 0c             	sub    $0xc,%esp
 8049c46:	68 40 a3 04 08       	push   $0x804a340
 8049c4b:	e8 20 ec ff ff       	call   8048870 <gethostbyname@plt>
 8049c50:	83 c4 10             	add    $0x10,%esp
 8049c53:	85 c0                	test   %eax,%eax
 8049c55:	75 6c                	jne    8049cc3 <init_driver+0x11c>
 8049c57:	c7 06 45 72 72 6f    	movl   $0x6f727245,(%esi)
 8049c5d:	c7 46 04 72 3a 20 44 	movl   $0x44203a72,0x4(%esi)
 8049c64:	c7 46 08 4e 53 20 69 	movl   $0x6920534e,0x8(%esi)
 8049c6b:	c7 46 0c 73 20 75 6e 	movl   $0x6e752073,0xc(%esi)
 8049c72:	c7 46 10 61 62 6c 65 	movl   $0x656c6261,0x10(%esi)
 8049c79:	c7 46 14 20 74 6f 20 	movl   $0x206f7420,0x14(%esi)
 8049c80:	c7 46 18 72 65 73 6f 	movl   $0x6f736572,0x18(%esi)
 8049c87:	c7 46 1c 6c 76 65 20 	movl   $0x2065766c,0x1c(%esi)
 8049c8e:	c7 46 20 73 65 72 76 	movl   $0x76726573,0x20(%esi)
 8049c95:	c7 46 24 65 72 20 61 	movl   $0x61207265,0x24(%esi)
 8049c9c:	c7 46 28 64 64 72 65 	movl   $0x65726464,0x28(%esi)
 8049ca3:	66 c7 46 2c 73 73    	movw   $0x7373,0x2c(%esi)
 8049ca9:	c6 46 2e 00          	movb   $0x0,0x2e(%esi)
 8049cad:	83 ec 0c             	sub    $0xc,%esp
 8049cb0:	53                   	push   %ebx
 8049cb1:	e8 ea eb ff ff       	call   80488a0 <close@plt>
 8049cb6:	83 c4 10             	add    $0x10,%esp
 8049cb9:	b8 ff ff ff ff       	mov    $0xffffffff,%eax
 8049cbe:	e9 9d 00 00 00       	jmp    8049d60 <init_driver+0x1b9>
 8049cc3:	8d 7c 24 0c          	lea    0xc(%esp),%edi
 8049cc7:	c7 44 24 0c 00 00 00 	movl   $0x0,0xc(%esp)
 8049cce:	00 
 8049ccf:	c7 44 24 10 00 00 00 	movl   $0x0,0x10(%esp)
 8049cd6:	00 
 8049cd7:	c7 44 24 14 00 00 00 	movl   $0x0,0x14(%esp)
 8049cde:	00 
 8049cdf:	c7 44 24 18 00 00 00 	movl   $0x0,0x18(%esp)
 8049ce6:	00 
 8049ce7:	66 c7 44 24 0c 02 00 	movw   $0x2,0xc(%esp)
 8049cee:	6a 0c                	push   $0xc
 8049cf0:	ff 70 0c             	pushl  0xc(%eax)
 8049cf3:	8b 40 10             	mov    0x10(%eax),%eax
 8049cf6:	ff 30                	pushl  (%eax)
 8049cf8:	8d 44 24 1c          	lea    0x1c(%esp),%eax
 8049cfc:	50                   	push   %eax
 8049cfd:	e8 ce ea ff ff       	call   80487d0 <__memmove_chk@plt>
 8049d02:	66 c7 44 24 1e 3b 6e 	movw   $0x6e3b,0x1e(%esp)
 8049d09:	83 c4 0c             	add    $0xc,%esp
 8049d0c:	6a 10                	push   $0x10
 8049d0e:	57                   	push   %edi
 8049d0f:	53                   	push   %ebx
 8049d10:	e8 7b eb ff ff       	call   8048890 <connect@plt>
 8049d15:	83 c4 10             	add    $0x10,%esp
 8049d18:	85 c0                	test   %eax,%eax
 8049d1a:	79 2a                	jns    8049d46 <init_driver+0x19f>
 8049d1c:	83 ec 0c             	sub    $0xc,%esp
 8049d1f:	68 40 a3 04 08       	push   $0x804a340
 8049d24:	68 00 a3 04 08       	push   $0x804a300
 8049d29:	6a ff                	push   $0xffffffff
 8049d2b:	6a 01                	push   $0x1
 8049d2d:	56                   	push   %esi
 8049d2e:	e8 8d eb ff ff       	call   80488c0 <__sprintf_chk@plt>
 8049d33:	83 c4 14             	add    $0x14,%esp
 8049d36:	53                   	push   %ebx
 8049d37:	e8 64 eb ff ff       	call   80488a0 <close@plt>
 8049d3c:	83 c4 10             	add    $0x10,%esp
 8049d3f:	b8 ff ff ff ff       	mov    $0xffffffff,%eax
 8049d44:	eb 1a                	jmp    8049d60 <init_driver+0x1b9>
 8049d46:	83 ec 0c             	sub    $0xc,%esp
 8049d49:	53                   	push   %ebx
 8049d4a:	e8 51 eb ff ff       	call   80488a0 <close@plt>
 8049d4f:	66 c7 06 4f 4b       	movw   $0x4b4f,(%esi)
 8049d54:	c6 46 02 00          	movb   $0x0,0x2(%esi)
 8049d58:	83 c4 10             	add    $0x10,%esp
 8049d5b:	b8 00 00 00 00       	mov    $0x0,%eax
 8049d60:	8b 54 24 1c          	mov    0x1c(%esp),%edx
 8049d64:	65 33 15 14 00 00 00 	xor    %gs:0x14,%edx
 8049d6b:	74 05                	je     8049d72 <init_driver+0x1cb>
 8049d6d:	e8 1e ea ff ff       	call   8048790 <__stack_chk_fail@plt>
 8049d72:	83 c4 20             	add    $0x20,%esp
 8049d75:	5b                   	pop    %ebx
 8049d76:	5e                   	pop    %esi
 8049d77:	5f                   	pop    %edi
 8049d78:	c3                   	ret    

08049d79 <driver_post>:
 8049d79:	53                   	push   %ebx
 8049d7a:	83 ec 08             	sub    $0x8,%esp
 8049d7d:	8b 44 24 10          	mov    0x10(%esp),%eax
 8049d81:	8b 5c 24 1c          	mov    0x1c(%esp),%ebx
 8049d85:	83 7c 24 18 00       	cmpl   $0x0,0x18(%esp)
 8049d8a:	74 26                	je     8049db2 <driver_post+0x39>
 8049d8c:	83 ec 04             	sub    $0x4,%esp
 8049d8f:	ff 74 24 18          	pushl  0x18(%esp)
 8049d93:	68 4e a3 04 08       	push   $0x804a34e
 8049d98:	6a 01                	push   $0x1
 8049d9a:	e8 a1 ea ff ff       	call   8048840 <__printf_chk@plt>
 8049d9f:	66 c7 03 4f 4b       	movw   $0x4b4f,(%ebx)
 8049da4:	c6 43 02 00          	movb   $0x0,0x2(%ebx)
 8049da8:	83 c4 10             	add    $0x10,%esp
 8049dab:	b8 00 00 00 00       	mov    $0x0,%eax
 8049db0:	eb 3e                	jmp    8049df0 <driver_post+0x77>
 8049db2:	85 c0                	test   %eax,%eax
 8049db4:	74 2c                	je     8049de2 <driver_post+0x69>
 8049db6:	80 38 00             	cmpb   $0x0,(%eax)
 8049db9:	74 27                	je     8049de2 <driver_post+0x69>
 8049dbb:	83 ec 04             	sub    $0x4,%esp
 8049dbe:	53                   	push   %ebx
 8049dbf:	ff 74 24 1c          	pushl  0x1c(%esp)
 8049dc3:	68 65 a3 04 08       	push   $0x804a365
 8049dc8:	50                   	push   %eax
 8049dc9:	68 6d a3 04 08       	push   $0x804a36d
 8049dce:	68 6e 3b 00 00       	push   $0x3b6e
 8049dd3:	68 40 a3 04 08       	push   $0x804a340
 8049dd8:	e8 cb f5 ff ff       	call   80493a8 <submitr>
 8049ddd:	83 c4 20             	add    $0x20,%esp
 8049de0:	eb 0e                	jmp    8049df0 <driver_post+0x77>
 8049de2:	66 c7 03 4f 4b       	movw   $0x4b4f,(%ebx)
 8049de7:	c6 43 02 00          	movb   $0x0,0x2(%ebx)
 8049deb:	b8 00 00 00 00       	mov    $0x0,%eax
 8049df0:	83 c4 08             	add    $0x8,%esp
 8049df3:	5b                   	pop    %ebx
 8049df4:	c3                   	ret    
 8049df5:	66 90                	xchg   %ax,%ax
 8049df7:	66 90                	xchg   %ax,%ax
 8049df9:	66 90                	xchg   %ax,%ax
 8049dfb:	66 90                	xchg   %ax,%ax
 8049dfd:	66 90                	xchg   %ax,%ax
 8049dff:	90                   	nop

08049e00 <__libc_csu_init>:
 8049e00:	55                   	push   %ebp
 8049e01:	57                   	push   %edi
 8049e02:	56                   	push   %esi
 8049e03:	53                   	push   %ebx
 8049e04:	e8 07 eb ff ff       	call   8048910 <__x86.get_pc_thunk.bx>
 8049e09:	81 c3 f7 21 00 00    	add    $0x21f7,%ebx
 8049e0f:	83 ec 0c             	sub    $0xc,%esp
 8049e12:	8b 6c 24 20          	mov    0x20(%esp),%ebp
 8049e16:	8d b3 0c ff ff ff    	lea    -0xf4(%ebx),%esi
 8049e1c:	e8 d3 e8 ff ff       	call   80486f4 <_init>
 8049e21:	8d 83 08 ff ff ff    	lea    -0xf8(%ebx),%eax
 8049e27:	29 c6                	sub    %eax,%esi
 8049e29:	c1 fe 02             	sar    $0x2,%esi
 8049e2c:	85 f6                	test   %esi,%esi
 8049e2e:	74 25                	je     8049e55 <__libc_csu_init+0x55>
 8049e30:	31 ff                	xor    %edi,%edi
 8049e32:	8d b6 00 00 00 00    	lea    0x0(%esi),%esi
 8049e38:	83 ec 04             	sub    $0x4,%esp
 8049e3b:	ff 74 24 2c          	pushl  0x2c(%esp)
 8049e3f:	ff 74 24 2c          	pushl  0x2c(%esp)
 8049e43:	55                   	push   %ebp
 8049e44:	ff 94 bb 08 ff ff ff 	call   *-0xf8(%ebx,%edi,4)
 8049e4b:	83 c7 01             	add    $0x1,%edi
 8049e4e:	83 c4 10             	add    $0x10,%esp
 8049e51:	39 f7                	cmp    %esi,%edi
 8049e53:	75 e3                	jne    8049e38 <__libc_csu_init+0x38>
 8049e55:	83 c4 0c             	add    $0xc,%esp
 8049e58:	5b                   	pop    %ebx
 8049e59:	5e                   	pop    %esi
 8049e5a:	5f                   	pop    %edi
 8049e5b:	5d                   	pop    %ebp
 8049e5c:	c3                   	ret    
 8049e5d:	8d 76 00             	lea    0x0(%esi),%esi

08049e60 <__libc_csu_fini>:
 8049e60:	f3 c3                	repz ret 

Disassembly of section .fini:

08049e64 <_fini>:
 8049e64:	53                   	push   %ebx
 8049e65:	83 ec 08             	sub    $0x8,%esp
 8049e68:	e8 a3 ea ff ff       	call   8048910 <__x86.get_pc_thunk.bx>
 8049e6d:	81 c3 93 21 00 00    	add    $0x2193,%ebx
 8049e73:	83 c4 08             	add    $0x8,%esp
 8049e76:	5b                   	pop    %ebx
 8049e77:	c3                   	ret    
